	.file	"malloc.c"
	.text
.Ltext0:
	.comm	g_memManager,4,4
	.globl	cgc_calloc
	.type	cgc_calloc, @function
cgc_calloc:
.LFB0:
	.file 1 "/home/pdreiter/Data/APR_eval/GenProg/trans.src-v24.cb_eval/SCUBA_Dive_Logging/lib/malloc.c"
	.loc 1 41 1
	.cfi_startproc
	pushl	%ebp
	.cfi_def_cfa_offset 8
	.cfi_offset 5, -8
	movl	%esp, %ebp
	.cfi_def_cfa_register 5
	pushl	%ebx
	subl	$20, %esp
	.cfi_offset 3, -12
	call	__x86.get_pc_thunk.bx
	addl	$_GLOBAL_OFFSET_TABLE_, %ebx
	.loc 1 42 16
	movl	8(%ebp), %eax
	imull	12(%ebp), %eax
	movl	%eax, -12(%ebp)
	.loc 1 45 18
	subl	$12, %esp
	pushl	-12(%ebp)
	call	cgc_malloc
	addl	$16, %esp
	movl	%eax, -16(%ebp)
	.loc 1 47 5
	subl	$4, %esp
	pushl	-12(%ebp)
	pushl	$0
	pushl	-16(%ebp)
	call	cgc_memset@PLT
	addl	$16, %esp
	.loc 1 49 12
	movl	-16(%ebp), %eax
	.loc 1 50 1
	movl	-4(%ebp), %ebx
	leave
	.cfi_restore 5
	.cfi_restore 3
	.cfi_def_cfa 4, 4
	ret
	.cfi_endproc
.LFE0:
	.size	cgc_calloc, .-cgc_calloc
	.globl	cgc_add_free_list
	.type	cgc_add_free_list, @function
cgc_add_free_list:
.LFB1:
	.loc 1 53 1
	.cfi_startproc
	pushl	%ebp
	.cfi_def_cfa_offset 8
	.cfi_offset 5, -8
	movl	%esp, %ebp
	.cfi_def_cfa_register 5
	pushl	%ebx
	subl	$20, %esp
	.cfi_offset 3, -12
	call	__x86.get_pc_thunk.bx
	addl	$_GLOBAL_OFFSET_TABLE_, %ebx
	.loc 1 55 16
	movl	8(%ebp), %eax
	addl	$4, %eax
	movl	%eax, -12(%ebp)
	.loc 1 58 20
	movl	-12(%ebp), %eax
	andl	$4095, %eax
	.loc 1 58 8
	testl	%eax, %eax
	je	.L4
	.loc 1 60 32
	movl	-12(%ebp), %eax
	shrl	$12, %eax
	.loc 1 60 19
	addl	$1, %eax
	movl	%eax, -12(%ebp)
	.loc 1 61 19
	sall	$12, -12(%ebp)
.L4:
	.loc 1 66 10
	subl	$4, %esp
	leal	-24(%ebp), %eax
	pushl	%eax
	pushl	$0
	pushl	-12(%ebp)
	call	cgc_allocate@PLT
	addl	$16, %esp
	.loc 1 66 8
	testl	%eax, %eax
	je	.L5
	.loc 1 69 9
	subl	$12, %esp
	pushl	$-2
	call	cgc__terminate@PLT
.L5:
	.loc 1 73 22
	movl	-24(%ebp), %eax
	movl	%eax, -16(%ebp)
	.loc 1 74 72
	movl	-24(%ebp), %eax
	movl	-12(%ebp), %edx
	subl	$8, %edx
	.loc 1 74 22
	addl	%edx, %eax
	movl	%eax, -20(%ebp)
	.loc 1 76 42
	movl	-12(%ebp), %eax
	leal	-4(%eax), %edx
	.loc 1 76 30
	movl	-16(%ebp), %eax
	movl	%edx, (%eax)
	.loc 1 79 25
	movl	-20(%ebp), %eax
	movl	$0, 4(%eax)
	.loc 1 80 39
	movl	g_memManager@GOT(%ebx), %eax
	movl	(%eax), %edx
	.loc 1 80 25
	movl	-20(%ebp), %eax
	movl	%edx, (%eax)
	.loc 1 81 28
	movl	g_memManager@GOT(%ebx), %eax
	movl	-16(%ebp), %edx
	movl	%edx, (%eax)
	.loc 1 83 12
	movl	-16(%ebp), %eax
	.loc 1 84 1
	movl	-4(%ebp), %ebx
	leave
	.cfi_restore 5
	.cfi_restore 3
	.cfi_def_cfa 4, 4
	ret
	.cfi_endproc
.LFE1:
	.size	cgc_add_free_list, .-cgc_add_free_list
	.section	.rodata
.LC0:
	.string	"Footer != in malloc"
	.text
	.globl	cgc_malloc
	.type	cgc_malloc, @function
cgc_malloc:
.LFB2:
	.loc 1 87 1
	.cfi_startproc
	pushl	%ebp
	.cfi_def_cfa_offset 8
	.cfi_offset 5, -8
	movl	%esp, %ebp
	.cfi_def_cfa_register 5
	pushl	%ebx
	subl	$36, %esp
	.cfi_offset 3, -12
	call	__x86.get_pc_thunk.bx
	addl	$_GLOBAL_OFFSET_TABLE_, %ebx
	.loc 1 89 8
	cmpl	$7, 8(%ebp)
	ja	.L8
	.loc 1 90 20
	movl	$8, 8(%ebp)
	jmp	.L9
.L8:
	.loc 1 91 26
	movl	8(%ebp), %eax
	andl	$3, %eax
	.loc 1 91 13
	testl	%eax, %eax
	je	.L9
	.loc 1 93 34
	movl	8(%ebp), %eax
	shrl	$2, %eax
	.loc 1 93 20
	addl	$1, %eax
	movl	%eax, 8(%ebp)
	.loc 1 94 20
	sall	$2, 8(%ebp)
.L9:
	.loc 1 100 14
	movl	g_memManager@GOT(%ebx), %eax
	movl	(%eax), %eax
	movl	%eax, -12(%ebp)
.L23:
.LBB2:
	.loc 1 104 12
	cmpl	$0, -12(%ebp)
	jne	.L10
	.loc 1 107 24
	subl	$12, %esp
	pushl	8(%ebp)
	call	cgc_add_free_list
	addl	$16, %esp
	movl	%eax, -12(%ebp)
.L10:
	.loc 1 110 26
	movl	-12(%ebp), %eax
	movl	%eax, -16(%ebp)
	.loc 1 111 90
	movl	-16(%ebp), %eax
	movl	(%eax), %eax
	.loc 1 111 103
	andl	$-4, %eax
	.loc 1 111 110
	leal	-4(%eax), %edx
	.loc 1 111 26
	movl	-12(%ebp), %eax
	addl	%edx, %eax
	movl	%eax, -20(%ebp)
	.loc 1 114 28
	movl	-16(%ebp), %eax
	movl	(%eax), %eax
	.loc 1 114 12
	cmpl	%eax, 8(%ebp)
	ja	.L11
.LBB3:
	.loc 1 117 19
	movl	-12(%ebp), %eax
	addl	$4, %eax
	movl	%eax, -24(%ebp)
	.loc 1 120 55
	movl	-16(%ebp), %eax
	movl	(%eax), %eax
	.loc 1 120 24
	subl	8(%ebp), %eax
	movl	%eax, -28(%ebp)
	.loc 1 123 40
	movl	-16(%ebp), %eax
	movl	8(%ebp), %edx
	movl	%edx, (%eax)
	.loc 1 126 41
	movl	-16(%ebp), %eax
	movl	(%eax), %eax
	orl	$1, %eax
	movl	%eax, %edx
	movl	-16(%ebp), %eax
	movl	%edx, (%eax)
	.loc 1 128 16
	cmpl	$11, -28(%ebp)
	jbe	.L12
.LBB4:
	.loc 1 131 45
	movl	8(%ebp), %eax
	leal	4(%eax), %edx
	.loc 1 131 23
	movl	-12(%ebp), %eax
	addl	%edx, %eax
	movl	%eax, -32(%ebp)
	.loc 1 133 34
	movl	-32(%ebp), %eax
	movl	%eax, -36(%ebp)
	.loc 1 134 63
	movl	-28(%ebp), %eax
	leal	-4(%eax), %edx
	.loc 1 134 45
	movl	-36(%ebp), %eax
	movl	%edx, (%eax)
	.loc 1 136 34
	movl	-20(%ebp), %eax
	movl	%eax, -40(%ebp)
	.loc 1 138 65
	movl	-36(%ebp), %eax
	movl	(%eax), %eax
	.loc 1 138 78
	andl	$-4, %eax
	.loc 1 138 85
	leal	-4(%eax), %edx
	movl	-36(%ebp), %eax
	addl	%edx, %eax
	.loc 1 138 20
	cmpl	%eax, -20(%ebp)
	je	.L13
	.loc 1 140 21
	subl	$12, %esp
	leal	.LC0@GOTOFF(%ebx), %eax
	pushl	%eax
	call	cgc_printf@PLT
	addl	$16, %esp
	.loc 1 141 21
	subl	$12, %esp
	pushl	$-3
	call	cgc__terminate@PLT
.L13:
	.loc 1 145 34
	movl	g_memManager@GOT(%ebx), %eax
	movl	(%eax), %eax
	.loc 1 145 20
	cmpl	%eax, -12(%ebp)
	jne	.L14
	.loc 1 147 44
	movl	g_memManager@GOT(%ebx), %eax
	movl	-36(%ebp), %edx
	movl	%edx, (%eax)
	.loc 1 149 41
	movl	-40(%ebp), %eax
	movl	(%eax), %eax
	.loc 1 149 24
	testl	%eax, %eax
	je	.L16
	.loc 1 150 70
	movl	-40(%ebp), %eax
	movl	(%eax), %edx
	.loc 1 150 116
	movl	-40(%ebp), %eax
	movl	(%eax), %eax
	.loc 1 150 124
	movl	(%eax), %eax
	.loc 1 150 137
	andl	$-4, %eax
	.loc 1 150 144
	subl	$4, %eax
	.loc 1 150 27
	addl	%eax, %edx
	.loc 1 150 179
	movl	-36(%ebp), %eax
	movl	%eax, 4(%edx)
	jmp	.L16
.L14:
	.loc 1 155 41
	movl	-40(%ebp), %eax
	movl	4(%eax), %eax
	.loc 1 155 24
	testl	%eax, %eax
	je	.L17
	.loc 1 156 70
	movl	-40(%ebp), %eax
	movl	4(%eax), %edx
	.loc 1 156 116
	movl	-40(%ebp), %eax
	movl	4(%eax), %eax
	.loc 1 156 124
	movl	(%eax), %eax
	.loc 1 156 137
	andl	$-4, %eax
	.loc 1 156 144
	subl	$4, %eax
	.loc 1 156 27
	addl	%eax, %edx
	.loc 1 156 179
	movl	-32(%ebp), %eax
	movl	%eax, (%edx)
.L17:
	.loc 1 158 41
	movl	-40(%ebp), %eax
	movl	(%eax), %eax
	.loc 1 158 24
	testl	%eax, %eax
	je	.L16
	.loc 1 159 70
	movl	-40(%ebp), %eax
	movl	(%eax), %edx
	.loc 1 159 116
	movl	-40(%ebp), %eax
	movl	(%eax), %eax
	.loc 1 159 124
	movl	(%eax), %eax
	.loc 1 159 137
	andl	$-4, %eax
	.loc 1 159 144
	subl	$4, %eax
	.loc 1 159 27
	addl	%eax, %edx
	.loc 1 159 179
	movl	-32(%ebp), %eax
	movl	%eax, 4(%edx)
.L16:
	.loc 1 163 45
	movl	-16(%ebp), %eax
	movl	(%eax), %eax
	orl	$2, %eax
	movl	%eax, %edx
	movl	-16(%ebp), %eax
	movl	%edx, (%eax)
.LBE4:
	jmp	.L18
.L12:
	.loc 1 168 34
	movl	g_memManager@GOT(%ebx), %eax
	movl	(%eax), %eax
	.loc 1 168 20
	cmpl	%eax, -12(%ebp)
	jne	.L19
	.loc 1 170 68
	movl	-20(%ebp), %eax
	movl	(%eax), %edx
	.loc 1 170 44
	movl	g_memManager@GOT(%ebx), %eax
	movl	%edx, (%eax)
	.loc 1 172 40
	movl	-20(%ebp), %eax
	movl	(%eax), %eax
	.loc 1 172 24
	testl	%eax, %eax
	je	.L18
	.loc 1 173 69
	movl	-20(%ebp), %eax
	movl	(%eax), %edx
	.loc 1 173 114
	movl	-20(%ebp), %eax
	movl	(%eax), %eax
	.loc 1 173 122
	movl	(%eax), %eax
	.loc 1 173 135
	andl	$-4, %eax
	.loc 1 173 142
	subl	$4, %eax
	.loc 1 173 27
	addl	%edx, %eax
	.loc 1 173 177
	movl	$0, 4(%eax)
	jmp	.L18
.L19:
	.loc 1 178 40
	movl	-20(%ebp), %eax
	movl	4(%eax), %eax
	.loc 1 178 24
	testl	%eax, %eax
	je	.L21
	.loc 1 179 69
	movl	-20(%ebp), %eax
	movl	4(%eax), %edx
	.loc 1 179 114
	movl	-20(%ebp), %eax
	movl	4(%eax), %eax
	.loc 1 179 122
	movl	(%eax), %eax
	.loc 1 179 135
	andl	$-4, %eax
	.loc 1 179 142
	subl	$4, %eax
	.loc 1 179 27
	addl	%eax, %edx
	.loc 1 179 193
	movl	-20(%ebp), %eax
	movl	(%eax), %eax
	.loc 1 179 177
	movl	%eax, (%edx)
.L21:
	.loc 1 181 40
	movl	-20(%ebp), %eax
	movl	(%eax), %eax
	.loc 1 181 24
	testl	%eax, %eax
	je	.L18
	.loc 1 182 69
	movl	-20(%ebp), %eax
	movl	(%eax), %edx
	.loc 1 182 114
	movl	-20(%ebp), %eax
	movl	(%eax), %eax
	.loc 1 182 122
	movl	(%eax), %eax
	.loc 1 182 135
	andl	$-4, %eax
	.loc 1 182 142
	subl	$4, %eax
	.loc 1 182 27
	addl	%eax, %edx
	.loc 1 182 193
	movl	-20(%ebp), %eax
	movl	4(%eax), %eax
	.loc 1 182 177
	movl	%eax, 4(%edx)
.L18:
	.loc 1 188 13
	movl	-12(%ebp), %eax
	addl	$4, %eax
	subl	$4, %esp
	pushl	8(%ebp)
	pushl	$0
	pushl	%eax
	call	cgc_memset@PLT
	addl	$16, %esp
	.loc 1 191 29
	movl	-12(%ebp), %eax
	addl	$4, %eax
	jmp	.L24
.L11:
.LBE3:
	.loc 1 195 18
	movl	-20(%ebp), %eax
	movl	(%eax), %eax
	movl	%eax, -12(%ebp)
.LBE2:
	.loc 1 103 5
	jmp	.L23
.L24:
	.loc 1 197 1 discriminator 1
	movl	-4(%ebp), %ebx
	leave
	.cfi_restore 5
	.cfi_restore 3
	.cfi_def_cfa 4, 4
	ret
	.cfi_endproc
.LFE2:
	.size	cgc_malloc, .-cgc_malloc
	.globl	cgc_free
	.type	cgc_free, @function
cgc_free:
.LFB3:
	.loc 1 200 1
	.cfi_startproc
	pushl	%ebp
	.cfi_def_cfa_offset 8
	.cfi_offset 5, -8
	movl	%esp, %ebp
	.cfi_def_cfa_register 5
	pushl	%ebx
	subl	$36, %esp
	.cfi_offset 3, -12
	call	__x86.get_pc_thunk.ax
	addl	$_GLOBAL_OFFSET_TABLE_, %eax
	.loc 1 204 22
	movl	8(%ebp), %edx
	subl	$4, %edx
	movl	%edx, -12(%ebp)
	.loc 1 207 20
	movl	-12(%ebp), %edx
	movl	(%edx), %edx
	.loc 1 207 33
	andl	$1, %edx
	.loc 1 207 8
	testl	%edx, %edx
	jne	.L26
	.loc 1 210 9
	subl	$12, %esp
	pushl	$-2
	movl	%eax, %ebx
	call	cgc__terminate@PLT
.L26:
	.loc 1 214 19
	movl	-12(%ebp), %edx
	movl	(%edx), %edx
	.loc 1 214 32
	andl	$2, %edx
	.loc 1 214 8
	testl	%edx, %edx
	je	.L27
.LBB5:
	.loc 1 216 56
	movl	-12(%ebp), %edx
	movl	(%edx), %edx
	.loc 1 216 69
	movl	%edx, %ecx
	andl	$-4, %ecx
	.loc 1 216 26
	movl	8(%ebp), %edx
	addl	%ecx, %edx
	movl	%edx, -16(%ebp)
	.loc 1 219 25
	movl	-16(%ebp), %edx
	movl	(%edx), %edx
	.loc 1 219 38
	andl	$1, %edx
	.loc 1 219 12
	testl	%edx, %edx
	jne	.L27
.LBB6:
	.loc 1 222 48
	movl	-12(%ebp), %edx
	movl	(%edx), %edx
	.loc 1 222 61
	movl	%edx, %ecx
	andl	$-4, %ecx
	.loc 1 222 81
	movl	-16(%ebp), %edx
	movl	(%edx), %edx
	.loc 1 222 94
	andl	$-4, %edx
	.loc 1 222 69
	addl	%ecx, %edx
	.loc 1 222 24
	addl	$4, %edx
	movl	%edx, -20(%ebp)
	.loc 1 226 34
	movl	-12(%ebp), %edx
	movl	-20(%ebp), %ecx
	movl	%ecx, (%edx)
	.loc 1 229 28
	movl	-16(%ebp), %edx
	movl	(%edx), %edx
	.loc 1 229 41
	andl	$2, %edx
	.loc 1 229 16
	testl	%edx, %edx
	je	.L28
	.loc 1 230 39
	movl	-12(%ebp), %edx
	movl	(%edx), %edx
	movl	%edx, %ecx
	orl	$2, %ecx
	movl	-12(%ebp), %edx
	movl	%ecx, (%edx)
.L28:
	.loc 1 233 30
	movl	g_memManager@GOT(%eax), %edx
	movl	(%edx), %edx
	.loc 1 233 16
	cmpl	%edx, -16(%ebp)
	jne	.L29
.LBB7:
	.loc 1 235 40
	movl	g_memManager@GOT(%eax), %eax
	movl	-12(%ebp), %edx
	movl	%edx, (%eax)
	.loc 1 237 97
	movl	-20(%ebp), %eax
	leal	-4(%eax), %edx
	.loc 1 237 34
	movl	-12(%ebp), %eax
	addl	%edx, %eax
	movl	%eax, -24(%ebp)
	.loc 1 239 30
	movl	-24(%ebp), %eax
	movl	(%eax), %eax
	.loc 1 239 20
	testl	%eax, %eax
	je	.L35
	.loc 1 240 59
	movl	-24(%ebp), %eax
	movl	(%eax), %edx
	.loc 1 240 98
	movl	-24(%ebp), %eax
	movl	(%eax), %eax
	.loc 1 240 106
	movl	(%eax), %eax
	.loc 1 240 119
	andl	$-4, %eax
	.loc 1 240 126
	subl	$4, %eax
	.loc 1 240 23
	addl	%eax, %edx
	.loc 1 240 161
	movl	-12(%ebp), %eax
	movl	%eax, 4(%edx)
.LBE7:
	.loc 1 255 13
	jmp	.L35
.L29:
.LBB8:
	.loc 1 244 97
	movl	-20(%ebp), %eax
	leal	-4(%eax), %edx
	.loc 1 244 34
	movl	-12(%ebp), %eax
	addl	%edx, %eax
	movl	%eax, -28(%ebp)
	.loc 1 247 30
	movl	-28(%ebp), %eax
	movl	4(%eax), %eax
	.loc 1 247 20
	testl	%eax, %eax
	je	.L32
	.loc 1 248 59
	movl	-28(%ebp), %eax
	movl	4(%eax), %edx
	.loc 1 248 98
	movl	-28(%ebp), %eax
	movl	4(%eax), %eax
	.loc 1 248 106
	movl	(%eax), %eax
	.loc 1 248 119
	andl	$-4, %eax
	.loc 1 248 126
	subl	$4, %eax
	.loc 1 248 23
	addl	%eax, %edx
	.loc 1 248 161
	movl	-12(%ebp), %eax
	movl	%eax, (%edx)
.L32:
	.loc 1 250 30
	movl	-28(%ebp), %eax
	movl	(%eax), %eax
	.loc 1 250 20
	testl	%eax, %eax
	je	.L35
	.loc 1 251 59
	movl	-28(%ebp), %eax
	movl	(%eax), %edx
	.loc 1 251 98
	movl	-28(%ebp), %eax
	movl	(%eax), %eax
	.loc 1 251 106
	movl	(%eax), %eax
	.loc 1 251 119
	andl	$-4, %eax
	.loc 1 251 126
	subl	$4, %eax
	.loc 1 251 23
	addl	%eax, %edx
	.loc 1 251 161
	movl	-12(%ebp), %eax
	movl	%eax, 4(%edx)
.LBE8:
	.loc 1 255 13
	jmp	.L35
.L27:
.LBE6:
.LBE5:
	.loc 1 260 27
	movl	-12(%ebp), %edx
	movl	(%edx), %edx
	movl	%edx, %ecx
	andl	$-2, %ecx
	movl	-12(%ebp), %edx
	movl	%ecx, (%edx)
	.loc 1 262 82
	movl	-12(%ebp), %edx
	movl	(%edx), %edx
	.loc 1 262 95
	andl	$-4, %edx
	.loc 1 262 102
	leal	-4(%edx), %ecx
	.loc 1 262 22
	movl	-12(%ebp), %edx
	addl	%ecx, %edx
	movl	%edx, -32(%ebp)
	.loc 1 264 35
	movl	g_memManager@GOT(%eax), %edx
	movl	(%edx), %ecx
	.loc 1 264 21
	movl	-32(%ebp), %edx
	movl	%ecx, (%edx)
	.loc 1 265 21
	movl	-32(%ebp), %edx
	movl	$0, 4(%edx)
	.loc 1 267 22
	movl	g_memManager@GOT(%eax), %edx
	movl	(%edx), %edx
	.loc 1 267 8
	testl	%edx, %edx
	je	.L34
	.loc 1 268 51
	movl	g_memManager@GOT(%eax), %edx
	movl	(%edx), %ecx
	.loc 1 268 97
	movl	g_memManager@GOT(%eax), %edx
	movl	(%edx), %edx
	.loc 1 268 108
	movl	(%edx), %edx
	.loc 1 268 121
	andl	$-4, %edx
	.loc 1 268 128
	subl	$4, %edx
	addl	%edx, %ecx
	.loc 1 268 163
	movl	-12(%ebp), %edx
	movl	%edx, 4(%ecx)
.L34:
	.loc 1 271 28
	movl	g_memManager@GOT(%eax), %eax
	movl	-12(%ebp), %edx
	movl	%edx, (%eax)
	.loc 1 274 5
	nop
	jmp	.L25
.L35:
.LBB10:
.LBB9:
	.loc 1 255 13
	nop
.L25:
.LBE9:
.LBE10:
	.loc 1 275 1
	movl	-4(%ebp), %ebx
	leave
	.cfi_restore 5
	.cfi_restore 3
	.cfi_def_cfa 4, 4
	ret
	.cfi_endproc
.LFE3:
	.size	cgc_free, .-cgc_free
	.section	.text.__x86.get_pc_thunk.ax,"axG",@progbits,__x86.get_pc_thunk.ax,comdat
	.globl	__x86.get_pc_thunk.ax
	.hidden	__x86.get_pc_thunk.ax
	.type	__x86.get_pc_thunk.ax, @function
__x86.get_pc_thunk.ax:
.LFB4:
	.cfi_startproc
	movl	(%esp), %eax
	ret
	.cfi_endproc
.LFE4:
	.section	.text.__x86.get_pc_thunk.bx,"axG",@progbits,__x86.get_pc_thunk.bx,comdat
	.globl	__x86.get_pc_thunk.bx
	.hidden	__x86.get_pc_thunk.bx
	.type	__x86.get_pc_thunk.bx, @function
__x86.get_pc_thunk.bx:
.LFB5:
	.cfi_startproc
	movl	(%esp), %ebx
	ret
	.cfi_endproc
.LFE5:
	.text
.Letext0:
	.file 2 "/home/pdreiter/Data/APR_eval/GenProg/trans.src-v24.cb_eval/include/libcgc.h"
	.file 3 "/home/pdreiter/Data/APR_eval/GenProg/trans.src-v24.cb_eval/SCUBA_Dive_Logging/include/cgc_malloc.h"
	.section	.note.GNU-stack,"",@progbits
