	.file	"new_printf.c"
	.text
.Ltext0:
	.globl	cgc_putc
	.type	cgc_putc, @function
cgc_putc:
.LFB0:
	.file 1 "/home/pdreiter/Data/APR_eval/GenProg/trans.src-v24.cb_eval/SCUBA_Dive_Logging/lib/new_printf.c"
	.loc 1 36 1
	.cfi_startproc
	pushl	%ebp
	.cfi_def_cfa_offset 8
	.cfi_offset 5, -8
	movl	%esp, %ebp
	.cfi_def_cfa_register 5
	pushl	%ebx
	subl	$20, %esp
	.cfi_offset 3, -12
	call	__x86.get_pc_thunk.bx
	addl	$_GLOBAL_OFFSET_TABLE_, %ebx
	.loc 1 39 10
	leal	-12(%ebp), %eax
	pushl	%eax
	pushl	$1
	leal	8(%ebp), %eax
	pushl	%eax
	pushl	$1
	call	cgc_transmit@PLT
	addl	$16, %esp
	.loc 1 39 8
	testl	%eax, %eax
	je	.L2
	.loc 1 40 9
	subl	$12, %esp
	pushl	$2
	call	cgc__terminate@PLT
.L2:
	.loc 1 42 12
	movl	8(%ebp), %eax
	.loc 1 43 1
	movl	-4(%ebp), %ebx
	leave
	.cfi_restore 5
	.cfi_restore 3
	.cfi_def_cfa 4, 4
	ret
	.cfi_endproc
.LFE0:
	.size	cgc_putc, .-cgc_putc
	.globl	cgc_int_to_str
	.type	cgc_int_to_str, @function
cgc_int_to_str:
.LFB1:
	.loc 1 46 1
	.cfi_startproc
	pushl	%ebp
	.cfi_def_cfa_offset 8
	.cfi_offset 5, -8
	movl	%esp, %ebp
	.cfi_def_cfa_register 5
	subl	$48, %esp
	call	__x86.get_pc_thunk.ax
	addl	$_GLOBAL_OFFSET_TABLE_, %eax
	.loc 1 48 11
	leal	-40(%ebp), %eax
	movl	%eax, -4(%ebp)
	.loc 1 49 9
	movl	$0, -8(%ebp)
	.loc 1 51 8
	cmpl	$0, 12(%ebp)
	je	.L11
	.loc 1 54 8
	cmpl	$0, 8(%ebp)
	jns	.L8
	.loc 1 56 14
	movl	12(%ebp), %eax
	movb	$45, (%eax)
	.loc 1 57 12
	addl	$1, 12(%ebp)
	.loc 1 59 13
	negl	8(%ebp)
.L8:
	.loc 1 64 19 discriminator 1
	movl	8(%ebp), %ecx
	movl	$1717986919, %edx
	movl	%ecx, %eax
	imull	%edx
	sarl	$2, %edx
	movl	%ecx, %eax
	sarl	$31, %eax
	subl	%eax, %edx
	movl	%edx, %eax
	sall	$2, %eax
	addl	%edx, %eax
	addl	%eax, %eax
	subl	%eax, %ecx
	movl	%ecx, %edx
	.loc 1 64 25 discriminator 1
	movl	%edx, %eax
	addl	$48, %eax
	movl	%eax, %edx
	.loc 1 64 12 discriminator 1
	movl	-4(%ebp), %eax
	movb	%dl, (%eax)
	.loc 1 65 13 discriminator 1
	movl	8(%ebp), %ecx
	movl	$1717986919, %edx
	movl	%ecx, %eax
	imull	%edx
	sarl	$2, %edx
	movl	%ecx, %eax
	sarl	$31, %eax
	subl	%eax, %edx
	movl	%edx, %eax
	movl	%eax, 8(%ebp)
	.loc 1 67 10 discriminator 1
	addl	$1, -4(%ebp)
	.loc 1 68 14 discriminator 1
	addl	$1, -8(%ebp)
	.loc 1 69 5 discriminator 1
	cmpl	$0, 8(%ebp)
	jne	.L8
	.loc 1 71 11
	jmp	.L9
.L10:
	.loc 1 73 10
	subl	$1, -4(%ebp)
	.loc 1 74 16
	movl	-4(%ebp), %eax
	movzbl	(%eax), %edx
	.loc 1 74 14
	movl	12(%ebp), %eax
	movb	%dl, (%eax)
	.loc 1 75 12
	addl	$1, 12(%ebp)
.L9:
	.loc 1 71 18
	movl	-8(%ebp), %eax
	leal	-1(%eax), %edx
	movl	%edx, -8(%ebp)
	.loc 1 71 11
	testl	%eax, %eax
	jg	.L10
	.loc 1 78 10
	movl	12(%ebp), %eax
	movb	$0, (%eax)
	jmp	.L4
.L11:
	.loc 1 52 9
	nop
.L4:
	.loc 1 79 1
	leave
	.cfi_restore 5
	.cfi_def_cfa 4, 4
	ret
	.cfi_endproc
.LFE1:
	.size	cgc_int_to_str, .-cgc_int_to_str
	.globl	cgc_int_to_hex
	.type	cgc_int_to_hex, @function
cgc_int_to_hex:
.LFB2:
	.loc 1 82 1
	.cfi_startproc
	pushl	%ebp
	.cfi_def_cfa_offset 8
	.cfi_offset 5, -8
	movl	%esp, %ebp
	.cfi_def_cfa_register 5
	subl	$48, %esp
	call	__x86.get_pc_thunk.ax
	addl	$_GLOBAL_OFFSET_TABLE_, %eax
	.loc 1 84 11
	leal	-40(%ebp), %eax
	movl	%eax, -4(%ebp)
	.loc 1 85 9
	movl	$0, -8(%ebp)
	.loc 1 87 8
	cmpl	$0, 12(%ebp)
	je	.L18
.L13:
	.loc 1 92 19
	movl	8(%ebp), %eax
	andl	$15, %eax
	.loc 1 92 25
	addl	$48, %eax
	movl	%eax, %edx
	.loc 1 92 12
	movl	-4(%ebp), %eax
	movb	%dl, (%eax)
	.loc 1 93 6
	movl	-4(%ebp), %eax
	movzbl	(%eax), %eax
	.loc 1 93 5
	cmpb	$57, %al
	jle	.L15
	.loc 1 94 6
	movl	-4(%ebp), %eax
	movzbl	(%eax), %eax
	addl	$7, %eax
	movl	%eax, %edx
	movl	-4(%ebp), %eax
	movb	%dl, (%eax)
.L15:
	.loc 1 96 13
	movl	8(%ebp), %eax
	shrl	$4, %eax
	movl	%eax, 8(%ebp)
	.loc 1 98 10
	addl	$1, -4(%ebp)
	.loc 1 99 14
	addl	$1, -8(%ebp)
	.loc 1 100 5
	cmpl	$0, 8(%ebp)
	jne	.L13
	.loc 1 102 11
	jmp	.L16
.L17:
	.loc 1 104 10
	subl	$1, -4(%ebp)
	.loc 1 105 16
	movl	-4(%ebp), %eax
	movzbl	(%eax), %edx
	.loc 1 105 14
	movl	12(%ebp), %eax
	movb	%dl, (%eax)
	.loc 1 106 12
	addl	$1, 12(%ebp)
.L16:
	.loc 1 102 18
	movl	-8(%ebp), %eax
	leal	-1(%eax), %edx
	movl	%edx, -8(%ebp)
	.loc 1 102 11
	testl	%eax, %eax
	jg	.L17
	.loc 1 109 10
	movl	12(%ebp), %eax
	movb	$0, (%eax)
	jmp	.L12
.L18:
	.loc 1 88 9
	nop
.L12:
	.loc 1 110 1
	leave
	.cfi_restore 5
	.cfi_def_cfa 4, 4
	ret
	.cfi_endproc
.LFE2:
	.size	cgc_int_to_hex, .-cgc_int_to_hex
	.section	.rodata
.LC0:
	.string	"nan"
.LC1:
	.string	"inf"
.LC3:
	.string	"0.00000"
	.text
	.globl	cgc_float_to_str
	.type	cgc_float_to_str, @function
cgc_float_to_str:
.LFB3:
	.loc 1 113 1
	.cfi_startproc
	pushl	%ebp
	.cfi_def_cfa_offset 8
	.cfi_offset 5, -8
	movl	%esp, %ebp
	.cfi_def_cfa_register 5
	pushl	%ebx
	subl	$68, %esp
	.cfi_offset 3, -12
	call	__x86.get_pc_thunk.bx
	addl	$_GLOBAL_OFFSET_TABLE_, %ebx
	movl	8(%ebp), %eax
	movl	%eax, -64(%ebp)
	movl	12(%ebp), %eax
	movl	%eax, -60(%ebp)
	.loc 1 114 8
	cmpl	$0, 16(%ebp)
	je	.L47
	.loc 1 117 10
	subl	$8, %esp
	pushl	-60(%ebp)
	pushl	-64(%ebp)
	call	cgc_isnan@PLT
	addl	$16, %esp
	.loc 1 117 8
	testl	%eax, %eax
	je	.L22
	.loc 1 119 9
	subl	$8, %esp
	leal	.LC0@GOTOFF(%ebx), %eax
	pushl	%eax
	pushl	16(%ebp)
	call	cgc_strcpy@PLT
	addl	$16, %esp
	jmp	.L48
.L22:
	.loc 1 121 15
	subl	$8, %esp
	pushl	-60(%ebp)
	pushl	-64(%ebp)
	call	cgc_isinf@PLT
	addl	$16, %esp
	.loc 1 121 13
	testl	%eax, %eax
	je	.L23
	.loc 1 123 9
	subl	$8, %esp
	leal	.LC1@GOTOFF(%ebx), %eax
	pushl	%eax
	pushl	16(%ebp)
	call	cgc_strcpy@PLT
	addl	$16, %esp
	jmp	.L48
.L23:
	.loc 1 125 13
	fldl	-64(%ebp)
	fldz
	fucomip	%st(1), %st
	fstp	%st(0)
	jp	.L24
	fldl	-64(%ebp)
	fldz
	fucomip	%st(1), %st
	fstp	%st(0)
	jne	.L24
	.loc 1 127 9
	subl	$8, %esp
	leal	.LC3@GOTOFF(%ebx), %eax
	pushl	%eax
	pushl	16(%ebp)
	call	cgc_strcpy@PLT
	addl	$16, %esp
	jmp	.L48
.L24:
.LBB2:
	.loc 1 136 13
	movl	$0, -28(%ebp)
	.loc 1 137 15
	movl	16(%ebp), %eax
	movl	%eax, -24(%ebp)
	.loc 1 139 12
	fldz
	fldl	-64(%ebp)
	fcomip	%st(1), %st
	fstp	%st(0)
	jbe	.L46
	.loc 1 140 17
	fldl	-64(%ebp)
	fldl	.LC4@GOTOFF(%ebx)
	faddp	%st, %st(1)
	fstpl	-64(%ebp)
	jmp	.L28
.L46:
	.loc 1 142 17
	fldl	-64(%ebp)
	fldl	.LC4@GOTOFF(%ebx)
	fsubrp	%st, %st(1)
	fstpl	-64(%ebp)
.L28:
	.loc 1 145 12
	fldl	-64(%ebp)
	fldz
	fcomip	%st(1), %st
	fstp	%st(0)
	jbe	.L29
	.loc 1 147 17
	movl	$1, -28(%ebp)
	.loc 1 148 16
	movl	-24(%ebp), %eax
	leal	1(%eax), %edx
	movl	%edx, -24(%ebp)
	.loc 1 148 20
	movb	$45, (%eax)
	.loc 1 149 17
	fldl	-64(%ebp)
	fchs
	fstpl	-64(%ebp)
.L29:
	.loc 1 153 13
	subl	$8, %esp
	pushl	-60(%ebp)
	pushl	-64(%ebp)
	call	cgc_log10@PLT
	addl	$16, %esp
	.loc 1 153 11
	fnstcw	-66(%ebp)
	movzwl	-66(%ebp), %eax
	orb	$12, %ah
	movw	%ax, -68(%ebp)
	fldcw	-68(%ebp)
	fistpl	-12(%ebp)
	fldcw	-66(%ebp)
	.loc 1 155 12
	cmpl	$0, -12(%ebp)
	jg	.L31
	.loc 1 156 15
	movl	$0, -12(%ebp)
.L31:
	.loc 1 158 24
	movl	$0, -16(%ebp)
	.loc 1 159 21
	movl	$0, -20(%ebp)
	.loc 1 160 15
	jmp	.L32
.L37:
.LBB3:
	.loc 1 162 29
	fildl	-12(%ebp)
	leal	-8(%esp), %esp
	fstpl	(%esp)
	fldl	.LC5@GOTOFF(%ebx)
	leal	-8(%esp), %esp
	fstpl	(%esp)
	call	cgc_pow@PLT
	addl	$16, %esp
	fstpl	-40(%ebp)
	.loc 1 163 16
	fldz
	fldl	-40(%ebp)
	fcomip	%st(1), %st
	fstp	%st(0)
	jbe	.L33
	.loc 1 163 33 discriminator 1
	subl	$8, %esp
	pushl	-36(%ebp)
	pushl	-40(%ebp)
	call	cgc_isinf@PLT
	addl	$16, %esp
	.loc 1 163 29 discriminator 1
	testl	%eax, %eax
	jne	.L33
	.loc 1 165 25
	fldl	-64(%ebp)
	fdivl	-40(%ebp)
	subl	$8, %esp
	leal	-8(%esp), %esp
	fstpl	(%esp)
	call	cgc_floor@PLT
	addl	$16, %esp
	.loc 1 165 23
	fnstcw	-66(%ebp)
	movzwl	-66(%ebp), %eax
	orb	$12, %ah
	movw	%ax, -68(%ebp)
	fldcw	-68(%ebp)
	fistpl	-44(%ebp)
	fldcw	-66(%ebp)
	.loc 1 166 31
	fildl	-44(%ebp)
	fmull	-40(%ebp)
	.loc 1 166 21
	fldl	-64(%ebp)
	fsubp	%st, %st(1)
	fstpl	-64(%ebp)
	.loc 1 168 30
	movl	-44(%ebp), %eax
	leal	48(%eax), %ecx
	.loc 1 168 20
	movl	-24(%ebp), %eax
	leal	1(%eax), %edx
	movl	%edx, -24(%ebp)
	.loc 1 168 30
	movl	%ecx, %edx
	.loc 1 168 24
	movb	%dl, (%eax)
	.loc 1 170 20
	cmpl	$0, -20(%ebp)
	je	.L33
	.loc 1 171 35
	addl	$1, -16(%ebp)
.L33:
	.loc 1 174 16
	cmpl	$0, -12(%ebp)
	jne	.L35
	.loc 1 174 25 discriminator 1
	fldz
	fldl	-64(%ebp)
	fcomip	%st(1), %st
	fstp	%st(0)
	jbe	.L35
	.loc 1 176 20
	movl	-24(%ebp), %eax
	leal	1(%eax), %edx
	movl	%edx, -24(%ebp)
	.loc 1 176 24
	movb	$46, (%eax)
	.loc 1 177 29
	movl	$1, -20(%ebp)
	.loc 1 178 32
	movl	$0, -16(%ebp)
.L35:
	.loc 1 181 14
	subl	$1, -12(%ebp)
.L32:
.LBE3:
	.loc 1 160 15
	fldl	.LC6@GOTOFF(%ebx)
	fldl	-64(%ebp)
	fcomip	%st(1), %st
	fstp	%st(0)
	ja	.L37
	.loc 1 160 31 discriminator 1
	cmpl	$0, -12(%ebp)
	jns	.L37
	.loc 1 184 15
	jmp	.L38
.L40:
	.loc 1 186 16
	movl	-24(%ebp), %eax
	leal	1(%eax), %edx
	movl	%edx, -24(%ebp)
	.loc 1 186 20
	movb	$48, (%eax)
	.loc 1 187 27
	addl	$1, -16(%ebp)
.L38:
	.loc 1 184 15
	cmpl	$0, -20(%ebp)
	je	.L39
	.loc 1 184 29 discriminator 1
	movl	-16(%ebp), %eax
	cmpl	20(%ebp), %eax
	jl	.L40
.L39:
	.loc 1 190 12
	movl	-24(%ebp), %eax
	movb	$0, (%eax)
	jmp	.L48
.L47:
.LBE2:
	.loc 1 115 9
	nop
.L48:
	.loc 1 192 1
	movl	-4(%ebp), %ebx
	leave
	.cfi_restore 5
	.cfi_restore 3
	.cfi_def_cfa 4, 4
	ret
	.cfi_endproc
.LFE3:
	.size	cgc_float_to_str, .-cgc_float_to_str
	.globl	cgc_vprintf
	.type	cgc_vprintf, @function
cgc_vprintf:
.LFB4:
	.loc 1 195 1
	.cfi_startproc
	pushl	%ebp
	.cfi_def_cfa_offset 8
	.cfi_offset 5, -8
	movl	%esp, %ebp
	.cfi_def_cfa_register 5
	pushl	%esi
	pushl	%ebx
	subl	$144, %esp
	.cfi_offset 6, -12
	.cfi_offset 3, -16
	call	__x86.get_pc_thunk.bx
	addl	$_GLOBAL_OFFSET_TABLE_, %ebx
	.loc 1 196 9
	movl	$0, -12(%ebp)
	.loc 1 202 8
	cmpl	$0, 8(%ebp)
	jne	.L52
	.loc 1 203 16
	movl	$-1, %eax
	jmp	.L116
.L115:
	.loc 1 207 14
	movl	8(%ebp), %eax
	movzbl	(%eax), %eax
	.loc 1 207 12
	cmpb	$64, %al
	jne	.L53
	.loc 1 209 16
	addl	$1, 8(%ebp)
	.loc 1 211 18
	movl	$0, -16(%ebp)
	.loc 1 212 22
	movl	$0, -20(%ebp)
	.loc 1 213 25
	movl	$0, -24(%ebp)
	.loc 1 214 31
	movl	$0, -28(%ebp)
	.loc 1 215 20
	movl	$0, -56(%ebp)
	.loc 1 218 17
	movl	8(%ebp), %eax
	movzbl	(%eax), %eax
	.loc 1 218 16
	cmpb	$64, %al
	jne	.L54
	.loc 1 220 17
	subl	$12, %esp
	pushl	$64
	call	cgc_putc
	addl	$16, %esp
	.loc 1 221 20
	addl	$1, 8(%ebp)
	.loc 1 222 32
	addl	$1, -12(%ebp)
	.loc 1 223 17
	jmp	.L52
.L54:
	.loc 1 226 17
	movl	8(%ebp), %eax
	movzbl	(%eax), %eax
	.loc 1 226 16
	cmpb	$45, %al
	jne	.L55
	.loc 1 228 35
	movl	$1, -28(%ebp)
	.loc 1 229 17
	addl	$1, 8(%ebp)
.L55:
	.loc 1 232 29
	movl	8(%ebp), %eax
	movzbl	(%eax), %eax
	.loc 1 232 17
	movsbl	%al, %eax
	subl	$12, %esp
	pushl	%eax
	call	cgc_isdigit@PLT
	addl	$16, %esp
	.loc 1 232 16
	testl	%eax, %eax
	je	.L56
	.loc 1 234 21
	movl	8(%ebp), %eax
	movzbl	(%eax), %eax
	.loc 1 234 20
	cmpb	$48, %al
	jne	.L57
	.loc 1 236 34
	movl	$1, -24(%ebp)
	.loc 1 237 24
	addl	$1, 8(%ebp)
.L57:
	.loc 1 240 33
	movl	8(%ebp), %eax
	movzbl	(%eax), %eax
	.loc 1 240 21
	movsbl	%al, %eax
	subl	$12, %esp
	pushl	%eax
	call	cgc_isdigit@PLT
	addl	$16, %esp
	.loc 1 240 20
	testl	%eax, %eax
	je	.L56
	.loc 1 242 29
	subl	$12, %esp
	pushl	8(%ebp)
	call	cgc_atoi@PLT
	addl	$16, %esp
	movl	%eax, -16(%ebp)
	.loc 1 245 27
	jmp	.L58
.L59:
	.loc 1 246 28
	addl	$1, 8(%ebp)
.L58:
	.loc 1 245 40
	movl	8(%ebp), %eax
	movzbl	(%eax), %eax
	.loc 1 245 28
	movsbl	%al, %eax
	subl	$12, %esp
	pushl	%eax
	call	cgc_isdigit@PLT
	addl	$16, %esp
	.loc 1 245 27
	testl	%eax, %eax
	jne	.L59
.L56:
	.loc 1 250 17
	movl	8(%ebp), %eax
	movzbl	(%eax), %eax
	.loc 1 250 16
	cmpb	$46, %al
	jne	.L60
	.loc 1 253 20
	addl	$1, 8(%ebp)
	.loc 1 255 27
	subl	$12, %esp
	pushl	8(%ebp)
	call	cgc_atoi@PLT
	addl	$16, %esp
	movl	%eax, -20(%ebp)
	.loc 1 258 23
	jmp	.L61
.L62:
	.loc 1 259 24
	addl	$1, 8(%ebp)
.L61:
	.loc 1 258 36
	movl	8(%ebp), %eax
	movzbl	(%eax), %eax
	.loc 1 258 24
	movsbl	%al, %eax
	subl	$12, %esp
	pushl	%eax
	call	cgc_isdigit@PLT
	addl	$16, %esp
	.loc 1 258 23
	testl	%eax, %eax
	jne	.L62
.L60:
	.loc 1 264 17
	movl	8(%ebp), %eax
	movzbl	(%eax), %eax
	.loc 1 264 16
	cmpb	$99, %al
	jne	.L63
.LBB4:
	.loc 1 266 54
	movl	12(%ebp), %eax
	leal	4(%eax), %edx
	movl	%edx, 12(%ebp)
	movl	(%eax), %eax
	.loc 1 266 22
	movb	%al, -57(%ebp)
	.loc 1 268 25
	movl	-16(%ebp), %eax
	subl	$1, %eax
	movl	%eax, -56(%ebp)
	.loc 1 271 20
	cmpl	$0, -28(%ebp)
	jne	.L64
	.loc 1 272 27
	movl	$0, -32(%ebp)
	.loc 1 272 21
	jmp	.L65
.L68:
	.loc 1 274 28
	cmpl	$0, -24(%ebp)
	je	.L66
	.loc 1 275 29
	subl	$12, %esp
	pushl	$48
	call	cgc_putc
	addl	$16, %esp
	jmp	.L67
.L66:
	.loc 1 277 29
	subl	$12, %esp
	pushl	$32
	call	cgc_putc
	addl	$16, %esp
.L67:
	.loc 1 279 40 discriminator 2
	addl	$1, -12(%ebp)
	.loc 1 272 43 discriminator 2
	addl	$1, -32(%ebp)
.L65:
	.loc 1 272 21 discriminator 1
	movl	-32(%ebp), %eax
	cmpl	-56(%ebp), %eax
	jl	.L68
.L64:
	.loc 1 284 17
	movsbl	-57(%ebp), %eax
	subl	$12, %esp
	pushl	%eax
	call	cgc_putc
	addl	$16, %esp
	.loc 1 285 32
	addl	$1, -12(%ebp)
	.loc 1 288 20
	cmpl	$0, -28(%ebp)
	je	.L69
	.loc 1 289 27
	movl	$0, -32(%ebp)
	.loc 1 289 21
	jmp	.L70
.L71:
	.loc 1 292 25 discriminator 3
	subl	$12, %esp
	pushl	$32
	call	cgc_putc
	addl	$16, %esp
	.loc 1 293 40 discriminator 3
	addl	$1, -12(%ebp)
	.loc 1 289 43 discriminator 3
	addl	$1, -32(%ebp)
.L70:
	.loc 1 289 21 discriminator 1
	movl	-32(%ebp), %eax
	cmpl	-56(%ebp), %eax
	jl	.L71
.L69:
	.loc 1 297 20
	addl	$1, 8(%ebp)
	.loc 1 298 17
	jmp	.L52
.L63:
.LBE4:
	.loc 1 302 17
	movl	8(%ebp), %eax
	movzbl	(%eax), %eax
	.loc 1 302 16
	cmpb	$100, %al
	jne	.L72
.LBB5:
	.loc 1 304 21
	movl	12(%ebp), %eax
	leal	4(%eax), %edx
	movl	%edx, 12(%ebp)
	movl	(%eax), %eax
	movl	%eax, -64(%ebp)
	.loc 1 307 17
	subl	$8, %esp
	leal	-144(%ebp), %eax
	pushl	%eax
	pushl	-64(%ebp)
	call	cgc_int_to_str
	addl	$16, %esp
	.loc 1 310 33
	movl	-16(%ebp), %esi
	.loc 1 310 35
	subl	$12, %esp
	leal	-144(%ebp), %eax
	pushl	%eax
	call	cgc_strlen@PLT
	addl	$16, %esp
	.loc 1 310 33
	subl	%eax, %esi
	movl	%esi, %eax
	.loc 1 310 25
	movl	%eax, -56(%ebp)
	.loc 1 313 20
	cmpl	$0, -28(%ebp)
	jne	.L73
	.loc 1 314 27
	movl	$0, -32(%ebp)
	.loc 1 314 21
	jmp	.L74
.L77:
	.loc 1 316 28
	cmpl	$0, -24(%ebp)
	je	.L75
	.loc 1 317 29
	subl	$12, %esp
	pushl	$48
	call	cgc_putc
	addl	$16, %esp
	jmp	.L76
.L75:
	.loc 1 319 29
	subl	$12, %esp
	pushl	$32
	call	cgc_putc
	addl	$16, %esp
.L76:
	.loc 1 321 40 discriminator 2
	addl	$1, -12(%ebp)
	.loc 1 314 43 discriminator 2
	addl	$1, -32(%ebp)
.L74:
	.loc 1 314 21 discriminator 1
	movl	-32(%ebp), %eax
	cmpl	-56(%ebp), %eax
	jl	.L77
.L73:
	.loc 1 326 19
	leal	-144(%ebp), %eax
	movl	%eax, -36(%ebp)
	.loc 1 327 23
	jmp	.L78
.L79:
	.loc 1 329 31
	movl	-36(%ebp), %eax
	movzbl	(%eax), %eax
	.loc 1 329 21
	movsbl	%al, %eax
	subl	$12, %esp
	pushl	%eax
	call	cgc_putc
	addl	$16, %esp
	.loc 1 330 36
	addl	$1, -12(%ebp)
	.loc 1 331 22
	addl	$1, -36(%ebp)
.L78:
	.loc 1 327 25
	movl	-36(%ebp), %eax
	movzbl	(%eax), %eax
	.loc 1 327 23
	testb	%al, %al
	jne	.L79
	.loc 1 335 20
	cmpl	$0, -28(%ebp)
	je	.L80
	.loc 1 336 27
	movl	$0, -32(%ebp)
	.loc 1 336 21
	jmp	.L81
.L82:
	.loc 1 339 25 discriminator 3
	subl	$12, %esp
	pushl	$32
	call	cgc_putc
	addl	$16, %esp
	.loc 1 340 40 discriminator 3
	addl	$1, -12(%ebp)
	.loc 1 336 43 discriminator 3
	addl	$1, -32(%ebp)
.L81:
	.loc 1 336 21 discriminator 1
	movl	-32(%ebp), %eax
	cmpl	-56(%ebp), %eax
	jl	.L82
.L80:
	.loc 1 344 20
	addl	$1, 8(%ebp)
	.loc 1 345 17
	jmp	.L52
.L72:
.LBE5:
	.loc 1 350 18
	movl	8(%ebp), %eax
	movzbl	(%eax), %eax
	.loc 1 350 16
	cmpb	$120, %al
	jne	.L83
.LBB6:
	.loc 1 352 30
	movl	12(%ebp), %eax
	leal	4(%eax), %edx
	movl	%edx, 12(%ebp)
	movl	(%eax), %eax
	movl	%eax, -68(%ebp)
	.loc 1 355 17
	subl	$8, %esp
	leal	-144(%ebp), %eax
	pushl	%eax
	pushl	-68(%ebp)
	call	cgc_int_to_hex
	addl	$16, %esp
	.loc 1 358 33
	movl	-16(%ebp), %esi
	.loc 1 358 35
	subl	$12, %esp
	leal	-144(%ebp), %eax
	pushl	%eax
	call	cgc_strlen@PLT
	addl	$16, %esp
	.loc 1 358 33
	subl	%eax, %esi
	movl	%esi, %eax
	.loc 1 358 25
	movl	%eax, -56(%ebp)
	.loc 1 361 20
	cmpl	$0, -28(%ebp)
	jne	.L84
	.loc 1 362 27
	movl	$0, -32(%ebp)
	.loc 1 362 21
	jmp	.L85
.L88:
	.loc 1 364 28
	cmpl	$0, -24(%ebp)
	je	.L86
	.loc 1 365 29
	subl	$12, %esp
	pushl	$48
	call	cgc_putc
	addl	$16, %esp
	jmp	.L87
.L86:
	.loc 1 367 29
	subl	$12, %esp
	pushl	$32
	call	cgc_putc
	addl	$16, %esp
.L87:
	.loc 1 369 40 discriminator 2
	addl	$1, -12(%ebp)
	.loc 1 362 43 discriminator 2
	addl	$1, -32(%ebp)
.L85:
	.loc 1 362 21 discriminator 1
	movl	-32(%ebp), %eax
	cmpl	-56(%ebp), %eax
	jl	.L88
.L84:
	.loc 1 374 19
	leal	-144(%ebp), %eax
	movl	%eax, -40(%ebp)
	.loc 1 375 23
	jmp	.L89
.L90:
	.loc 1 377 31
	movl	-40(%ebp), %eax
	movzbl	(%eax), %eax
	.loc 1 377 21
	movsbl	%al, %eax
	subl	$12, %esp
	pushl	%eax
	call	cgc_putc
	addl	$16, %esp
	.loc 1 378 36
	addl	$1, -12(%ebp)
	.loc 1 379 22
	addl	$1, -40(%ebp)
.L89:
	.loc 1 375 25
	movl	-40(%ebp), %eax
	movzbl	(%eax), %eax
	.loc 1 375 23
	testb	%al, %al
	jne	.L90
	.loc 1 383 20
	cmpl	$0, -28(%ebp)
	je	.L91
	.loc 1 384 27
	movl	$0, -32(%ebp)
	.loc 1 384 21
	jmp	.L92
.L93:
	.loc 1 387 25 discriminator 3
	subl	$12, %esp
	pushl	$32
	call	cgc_putc
	addl	$16, %esp
	.loc 1 388 40 discriminator 3
	addl	$1, -12(%ebp)
	.loc 1 384 43 discriminator 3
	addl	$1, -32(%ebp)
.L92:
	.loc 1 384 21 discriminator 1
	movl	-32(%ebp), %eax
	cmpl	-56(%ebp), %eax
	jl	.L93
.L91:
	.loc 1 392 20
	addl	$1, 8(%ebp)
	.loc 1 393 17
	jmp	.L52
.L83:
.LBE6:
	.loc 1 397 17
	movl	8(%ebp), %eax
	movzbl	(%eax), %eax
	.loc 1 397 16
	cmpb	$102, %al
	jne	.L94
.LBB7:
	.loc 1 402 24
	movl	12(%ebp), %eax
	leal	8(%eax), %edx
	movl	%edx, 12(%ebp)
	fldl	(%eax)
	fstpl	-80(%ebp)
	.loc 1 405 17
	pushl	-20(%ebp)
	leal	-144(%ebp), %eax
	pushl	%eax
	pushl	-76(%ebp)
	pushl	-80(%ebp)
	call	cgc_float_to_str
	addl	$16, %esp
	.loc 1 408 33
	movl	-16(%ebp), %esi
	.loc 1 408 35
	subl	$12, %esp
	leal	-144(%ebp), %eax
	pushl	%eax
	call	cgc_strlen@PLT
	addl	$16, %esp
	.loc 1 408 33
	subl	%eax, %esi
	movl	%esi, %eax
	.loc 1 408 25
	movl	%eax, -56(%ebp)
	.loc 1 411 20
	cmpl	$0, -28(%ebp)
	jne	.L95
	.loc 1 412 27
	movl	$0, -32(%ebp)
	.loc 1 412 21
	jmp	.L96
.L99:
	.loc 1 414 28
	cmpl	$0, -24(%ebp)
	je	.L97
	.loc 1 415 29
	subl	$12, %esp
	pushl	$48
	call	cgc_putc
	addl	$16, %esp
	jmp	.L98
.L97:
	.loc 1 417 29
	subl	$12, %esp
	pushl	$32
	call	cgc_putc
	addl	$16, %esp
.L98:
	.loc 1 419 40 discriminator 2
	addl	$1, -12(%ebp)
	.loc 1 412 43 discriminator 2
	addl	$1, -32(%ebp)
.L96:
	.loc 1 412 21 discriminator 1
	movl	-32(%ebp), %eax
	cmpl	-56(%ebp), %eax
	jl	.L99
.L95:
	.loc 1 424 19
	leal	-144(%ebp), %eax
	movl	%eax, -44(%ebp)
	.loc 1 425 23
	jmp	.L100
.L101:
	.loc 1 427 31
	movl	-44(%ebp), %eax
	movzbl	(%eax), %eax
	.loc 1 427 21
	movsbl	%al, %eax
	subl	$12, %esp
	pushl	%eax
	call	cgc_putc
	addl	$16, %esp
	.loc 1 428 36
	addl	$1, -12(%ebp)
	.loc 1 429 22
	addl	$1, -44(%ebp)
.L100:
	.loc 1 425 25
	movl	-44(%ebp), %eax
	movzbl	(%eax), %eax
	.loc 1 425 23
	testb	%al, %al
	jne	.L101
	.loc 1 431 20
	addl	$1, 8(%ebp)
	.loc 1 432 17
	jmp	.L52
.L94:
.LBE7:
	.loc 1 435 17
	movl	8(%ebp), %eax
	movzbl	(%eax), %eax
	.loc 1 435 16
	cmpb	$115, %al
	jne	.L52
.LBB8:
	.loc 1 437 23
	movl	12(%ebp), %eax
	leal	4(%eax), %edx
	movl	%edx, 12(%ebp)
	movl	(%eax), %eax
	movl	%eax, -48(%ebp)
	.loc 1 440 20
	cmpl	$0, -20(%ebp)
	jle	.L102
	.loc 1 440 50 discriminator 1
	subl	$12, %esp
	pushl	-48(%ebp)
	call	cgc_strlen@PLT
	addl	$16, %esp
	movl	%eax, %edx
	.loc 1 440 48 discriminator 1
	movl	-20(%ebp), %eax
	.loc 1 440 35 discriminator 1
	cmpl	%eax, %edx
	jbe	.L102
	.loc 1 442 35
	movl	-20(%ebp), %eax
	movl	%eax, -52(%ebp)
	jmp	.L103
.L102:
	.loc 1 444 37
	subl	$12, %esp
	pushl	-48(%ebp)
	call	cgc_strlen@PLT
	addl	$16, %esp
	.loc 1 444 35
	movl	%eax, -52(%ebp)
.L103:
	.loc 1 447 25
	movl	-16(%ebp), %eax
	subl	-52(%ebp), %eax
	movl	%eax, -56(%ebp)
	.loc 1 451 20
	cmpl	$0, -28(%ebp)
	jne	.L109
	.loc 1 452 27
	movl	$0, -32(%ebp)
	.loc 1 452 21
	jmp	.L105
.L108:
	.loc 1 454 28
	cmpl	$0, -24(%ebp)
	je	.L106
	.loc 1 455 29
	subl	$12, %esp
	pushl	$48
	call	cgc_putc
	addl	$16, %esp
	jmp	.L107
.L106:
	.loc 1 457 29
	subl	$12, %esp
	pushl	$32
	call	cgc_putc
	addl	$16, %esp
.L107:
	.loc 1 459 40 discriminator 2
	addl	$1, -12(%ebp)
	.loc 1 452 43 discriminator 2
	addl	$1, -32(%ebp)
.L105:
	.loc 1 452 21 discriminator 1
	movl	-32(%ebp), %eax
	cmpl	-56(%ebp), %eax
	jl	.L108
	.loc 1 463 23
	jmp	.L109
.L111:
	.loc 1 465 31
	movl	-48(%ebp), %eax
	movzbl	(%eax), %eax
	.loc 1 465 21
	movsbl	%al, %eax
	subl	$12, %esp
	pushl	%eax
	call	cgc_putc
	addl	$16, %esp
	.loc 1 466 36
	addl	$1, -12(%ebp)
	.loc 1 467 31
	addl	$1, -48(%ebp)
	.loc 1 468 21
	subl	$1, -52(%ebp)
.L109:
	.loc 1 463 25
	movl	-48(%ebp), %eax
	movzbl	(%eax), %eax
	.loc 1 463 23
	testb	%al, %al
	je	.L110
	.loc 1 463 37 discriminator 1
	cmpl	$0, -52(%ebp)
	jg	.L111
.L110:
	.loc 1 472 20
	cmpl	$0, -28(%ebp)
	je	.L112
	.loc 1 473 27
	movl	$0, -32(%ebp)
	.loc 1 473 21
	jmp	.L113
.L114:
	.loc 1 476 25 discriminator 3
	subl	$12, %esp
	pushl	$32
	call	cgc_putc
	addl	$16, %esp
	.loc 1 477 40 discriminator 3
	addl	$1, -12(%ebp)
	.loc 1 473 43 discriminator 3
	addl	$1, -32(%ebp)
.L113:
	.loc 1 473 21 discriminator 1
	movl	-32(%ebp), %eax
	cmpl	-56(%ebp), %eax
	jl	.L114
.L112:
	.loc 1 481 20
	addl	$1, 8(%ebp)
	.loc 1 482 17
	jmp	.L52
.L53:
.LBE8:
	.loc 1 489 23
	movl	8(%ebp), %eax
	movzbl	(%eax), %eax
	.loc 1 489 13
	movsbl	%al, %eax
	subl	$12, %esp
	pushl	%eax
	call	cgc_putc
	addl	$16, %esp
	.loc 1 490 16
	addl	$1, 8(%ebp)
	.loc 1 492 28
	addl	$1, -12(%ebp)
.L52:
	.loc 1 205 13
	movl	8(%ebp), %eax
	movzbl	(%eax), %eax
	.loc 1 205 11
	testb	%al, %al
	jne	.L115
	.loc 1 496 12
	movl	-12(%ebp), %eax
.L116:
	.loc 1 497 1 discriminator 1
	leal	-8(%ebp), %esp
	popl	%ebx
	.cfi_restore 3
	popl	%esi
	.cfi_restore 6
	popl	%ebp
	.cfi_restore 5
	.cfi_def_cfa 4, 4
	ret
	.cfi_endproc
.LFE4:
	.size	cgc_vprintf, .-cgc_vprintf
	.globl	cgc_vsprintf
	.type	cgc_vsprintf, @function
cgc_vsprintf:
.LFB5:
	.loc 1 503 1
	.cfi_startproc
	pushl	%ebp
	.cfi_def_cfa_offset 8
	.cfi_offset 5, -8
	movl	%esp, %ebp
	.cfi_def_cfa_register 5
	pushl	%esi
	pushl	%ebx
	subl	$144, %esp
	.cfi_offset 6, -12
	.cfi_offset 3, -16
	call	__x86.get_pc_thunk.bx
	addl	$_GLOBAL_OFFSET_TABLE_, %ebx
	.loc 1 504 9
	movl	$0, -12(%ebp)
	.loc 1 510 8
	cmpl	$0, 12(%ebp)
	jne	.L120
	.loc 1 511 16
	movl	$-1, %eax
	jmp	.L184
.L183:
	.loc 1 515 14
	movl	12(%ebp), %eax
	movzbl	(%eax), %eax
	.loc 1 515 12
	cmpb	$64, %al
	jne	.L121
	.loc 1 517 16
	addl	$1, 12(%ebp)
	.loc 1 519 18
	movl	$0, -16(%ebp)
	.loc 1 520 22
	movl	$0, -20(%ebp)
	.loc 1 521 25
	movl	$0, -24(%ebp)
	.loc 1 522 31
	movl	$0, -28(%ebp)
	.loc 1 523 20
	movl	$0, -56(%ebp)
	.loc 1 526 17
	movl	12(%ebp), %eax
	movzbl	(%eax), %eax
	.loc 1 526 16
	cmpb	$64, %al
	jne	.L122
	.loc 1 528 20
	movl	-12(%ebp), %edx
	movl	8(%ebp), %eax
	addl	%edx, %eax
	.loc 1 528 37
	movb	$64, (%eax)
	.loc 1 529 20
	addl	$1, 12(%ebp)
	.loc 1 530 32
	addl	$1, -12(%ebp)
	.loc 1 531 17
	jmp	.L120
.L122:
	.loc 1 534 17
	movl	12(%ebp), %eax
	movzbl	(%eax), %eax
	.loc 1 534 16
	cmpb	$45, %al
	jne	.L123
	.loc 1 536 35
	movl	$1, -28(%ebp)
	.loc 1 537 17
	addl	$1, 12(%ebp)
.L123:
	.loc 1 540 29
	movl	12(%ebp), %eax
	movzbl	(%eax), %eax
	.loc 1 540 17
	movsbl	%al, %eax
	subl	$12, %esp
	pushl	%eax
	call	cgc_isdigit@PLT
	addl	$16, %esp
	.loc 1 540 16
	testl	%eax, %eax
	je	.L124
	.loc 1 542 21
	movl	12(%ebp), %eax
	movzbl	(%eax), %eax
	.loc 1 542 20
	cmpb	$48, %al
	jne	.L125
	.loc 1 544 34
	movl	$1, -24(%ebp)
	.loc 1 545 24
	addl	$1, 12(%ebp)
.L125:
	.loc 1 548 33
	movl	12(%ebp), %eax
	movzbl	(%eax), %eax
	.loc 1 548 21
	movsbl	%al, %eax
	subl	$12, %esp
	pushl	%eax
	call	cgc_isdigit@PLT
	addl	$16, %esp
	.loc 1 548 20
	testl	%eax, %eax
	je	.L124
	.loc 1 550 29
	subl	$12, %esp
	pushl	12(%ebp)
	call	cgc_atoi@PLT
	addl	$16, %esp
	movl	%eax, -16(%ebp)
	.loc 1 552 27
	jmp	.L126
.L127:
	.loc 1 553 28
	addl	$1, 12(%ebp)
.L126:
	.loc 1 552 40
	movl	12(%ebp), %eax
	movzbl	(%eax), %eax
	.loc 1 552 28
	movsbl	%al, %eax
	subl	$12, %esp
	pushl	%eax
	call	cgc_isdigit@PLT
	addl	$16, %esp
	.loc 1 552 27
	testl	%eax, %eax
	jne	.L127
.L124:
	.loc 1 557 17
	movl	12(%ebp), %eax
	movzbl	(%eax), %eax
	.loc 1 557 16
	cmpb	$46, %al
	jne	.L128
	.loc 1 560 20
	addl	$1, 12(%ebp)
	.loc 1 562 27
	subl	$12, %esp
	pushl	12(%ebp)
	call	cgc_atoi@PLT
	addl	$16, %esp
	movl	%eax, -20(%ebp)
	.loc 1 565 23
	jmp	.L129
.L130:
	.loc 1 566 24
	addl	$1, 12(%ebp)
.L129:
	.loc 1 565 36
	movl	12(%ebp), %eax
	movzbl	(%eax), %eax
	.loc 1 565 24
	movsbl	%al, %eax
	subl	$12, %esp
	pushl	%eax
	call	cgc_isdigit@PLT
	addl	$16, %esp
	.loc 1 565 23
	testl	%eax, %eax
	jne	.L130
.L128:
	.loc 1 571 17
	movl	12(%ebp), %eax
	movzbl	(%eax), %eax
	.loc 1 571 16
	cmpb	$99, %al
	jne	.L131
.LBB9:
	.loc 1 573 54
	movl	16(%ebp), %eax
	leal	4(%eax), %edx
	movl	%edx, 16(%ebp)
	movl	(%eax), %eax
	.loc 1 573 22
	movb	%al, -57(%ebp)
	.loc 1 575 25
	movl	-16(%ebp), %eax
	subl	$1, %eax
	movl	%eax, -56(%ebp)
	.loc 1 578 20
	cmpl	$0, -28(%ebp)
	jne	.L132
	.loc 1 579 27
	movl	$0, -32(%ebp)
	.loc 1 579 21
	jmp	.L133
.L136:
	.loc 1 581 28
	cmpl	$0, -24(%ebp)
	je	.L134
	.loc 1 582 32
	movl	-12(%ebp), %edx
	movl	8(%ebp), %eax
	addl	%edx, %eax
	.loc 1 582 49
	movb	$48, (%eax)
	jmp	.L135
.L134:
	.loc 1 584 32
	movl	-12(%ebp), %edx
	movl	8(%ebp), %eax
	addl	%edx, %eax
	.loc 1 584 49
	movb	$32, (%eax)
.L135:
	.loc 1 586 40 discriminator 2
	addl	$1, -12(%ebp)
	.loc 1 579 43 discriminator 2
	addl	$1, -32(%ebp)
.L133:
	.loc 1 579 21 discriminator 1
	movl	-32(%ebp), %eax
	cmpl	-56(%ebp), %eax
	jl	.L136
.L132:
	.loc 1 590 20
	movl	-12(%ebp), %edx
	movl	8(%ebp), %eax
	addl	%eax, %edx
	.loc 1 590 37
	movzbl	-57(%ebp), %eax
	movb	%al, (%edx)
	.loc 1 591 32
	addl	$1, -12(%ebp)
	.loc 1 594 20
	cmpl	$0, -28(%ebp)
	je	.L137
	.loc 1 595 27
	movl	$0, -32(%ebp)
	.loc 1 595 21
	jmp	.L138
.L139:
	.loc 1 598 28 discriminator 3
	movl	-12(%ebp), %edx
	movl	8(%ebp), %eax
	addl	%edx, %eax
	.loc 1 598 45 discriminator 3
	movb	$32, (%eax)
	.loc 1 599 40 discriminator 3
	addl	$1, -12(%ebp)
	.loc 1 595 43 discriminator 3
	addl	$1, -32(%ebp)
.L138:
	.loc 1 595 21 discriminator 1
	movl	-32(%ebp), %eax
	cmpl	-56(%ebp), %eax
	jl	.L139
.L137:
	.loc 1 603 20
	addl	$1, 12(%ebp)
	.loc 1 604 17
	jmp	.L120
.L131:
.LBE9:
	.loc 1 608 17
	movl	12(%ebp), %eax
	movzbl	(%eax), %eax
	.loc 1 608 16
	cmpb	$100, %al
	jne	.L140
.LBB10:
	.loc 1 610 21
	movl	16(%ebp), %eax
	leal	4(%eax), %edx
	movl	%edx, 16(%ebp)
	movl	(%eax), %eax
	movl	%eax, -64(%ebp)
	.loc 1 613 17
	subl	$8, %esp
	leal	-144(%ebp), %eax
	pushl	%eax
	pushl	-64(%ebp)
	call	cgc_int_to_str
	addl	$16, %esp
	.loc 1 616 33
	movl	-16(%ebp), %esi
	.loc 1 616 35
	subl	$12, %esp
	leal	-144(%ebp), %eax
	pushl	%eax
	call	cgc_strlen@PLT
	addl	$16, %esp
	.loc 1 616 33
	subl	%eax, %esi
	movl	%esi, %eax
	.loc 1 616 25
	movl	%eax, -56(%ebp)
	.loc 1 619 20
	cmpl	$0, -28(%ebp)
	jne	.L141
	.loc 1 620 27
	movl	$0, -32(%ebp)
	.loc 1 620 21
	jmp	.L142
.L145:
	.loc 1 622 28
	cmpl	$0, -24(%ebp)
	je	.L143
	.loc 1 623 32
	movl	-12(%ebp), %edx
	movl	8(%ebp), %eax
	addl	%edx, %eax
	.loc 1 623 49
	movb	$48, (%eax)
	jmp	.L144
.L143:
	.loc 1 625 32
	movl	-12(%ebp), %edx
	movl	8(%ebp), %eax
	addl	%edx, %eax
	.loc 1 625 49
	movb	$32, (%eax)
.L144:
	.loc 1 627 40 discriminator 2
	addl	$1, -12(%ebp)
	.loc 1 620 43 discriminator 2
	addl	$1, -32(%ebp)
.L142:
	.loc 1 620 21 discriminator 1
	movl	-32(%ebp), %eax
	cmpl	-56(%ebp), %eax
	jl	.L145
.L141:
	.loc 1 632 19
	leal	-144(%ebp), %eax
	movl	%eax, -36(%ebp)
	.loc 1 633 23
	jmp	.L146
.L147:
	.loc 1 635 24
	movl	-12(%ebp), %edx
	movl	8(%ebp), %eax
	addl	%eax, %edx
	.loc 1 635 42
	movl	-36(%ebp), %eax
	movzbl	(%eax), %eax
	.loc 1 635 41
	movb	%al, (%edx)
	.loc 1 636 36
	addl	$1, -12(%ebp)
	.loc 1 637 22
	addl	$1, -36(%ebp)
.L146:
	.loc 1 633 25
	movl	-36(%ebp), %eax
	movzbl	(%eax), %eax
	.loc 1 633 23
	testb	%al, %al
	jne	.L147
	.loc 1 641 20
	cmpl	$0, -28(%ebp)
	je	.L148
	.loc 1 642 27
	movl	$0, -32(%ebp)
	.loc 1 642 21
	jmp	.L149
.L150:
	.loc 1 645 28 discriminator 3
	movl	-12(%ebp), %edx
	movl	8(%ebp), %eax
	addl	%edx, %eax
	.loc 1 645 45 discriminator 3
	movb	$32, (%eax)
	.loc 1 646 40 discriminator 3
	addl	$1, -12(%ebp)
	.loc 1 642 43 discriminator 3
	addl	$1, -32(%ebp)
.L149:
	.loc 1 642 21 discriminator 1
	movl	-32(%ebp), %eax
	cmpl	-56(%ebp), %eax
	jl	.L150
.L148:
	.loc 1 650 20
	addl	$1, 12(%ebp)
	.loc 1 651 17
	jmp	.L120
.L140:
.LBE10:
	.loc 1 656 18
	movl	12(%ebp), %eax
	movzbl	(%eax), %eax
	.loc 1 656 16
	cmpb	$120, %al
	jne	.L151
.LBB11:
	.loc 1 658 30
	movl	16(%ebp), %eax
	leal	4(%eax), %edx
	movl	%edx, 16(%ebp)
	movl	(%eax), %eax
	movl	%eax, -68(%ebp)
	.loc 1 661 17
	subl	$8, %esp
	leal	-144(%ebp), %eax
	pushl	%eax
	pushl	-68(%ebp)
	call	cgc_int_to_hex
	addl	$16, %esp
	.loc 1 664 33
	movl	-16(%ebp), %esi
	.loc 1 664 35
	subl	$12, %esp
	leal	-144(%ebp), %eax
	pushl	%eax
	call	cgc_strlen@PLT
	addl	$16, %esp
	.loc 1 664 33
	subl	%eax, %esi
	movl	%esi, %eax
	.loc 1 664 25
	movl	%eax, -56(%ebp)
	.loc 1 667 20
	cmpl	$0, -28(%ebp)
	jne	.L152
	.loc 1 668 27
	movl	$0, -32(%ebp)
	.loc 1 668 21
	jmp	.L153
.L156:
	.loc 1 670 28
	cmpl	$0, -24(%ebp)
	je	.L154
	.loc 1 671 32
	movl	-12(%ebp), %edx
	movl	8(%ebp), %eax
	addl	%edx, %eax
	.loc 1 671 50
	movb	$48, (%eax)
	jmp	.L155
.L154:
	.loc 1 673 32
	movl	-12(%ebp), %edx
	movl	8(%ebp), %eax
	addl	%edx, %eax
	.loc 1 673 50
	movb	$32, (%eax)
.L155:
	.loc 1 675 40 discriminator 2
	addl	$1, -12(%ebp)
	.loc 1 668 43 discriminator 2
	addl	$1, -32(%ebp)
.L153:
	.loc 1 668 21 discriminator 1
	movl	-32(%ebp), %eax
	cmpl	-56(%ebp), %eax
	jl	.L156
.L152:
	.loc 1 680 19
	leal	-144(%ebp), %eax
	movl	%eax, -40(%ebp)
	.loc 1 681 23
	jmp	.L157
.L158:
	.loc 1 683 24
	movl	-12(%ebp), %edx
	movl	8(%ebp), %eax
	addl	%eax, %edx
	.loc 1 683 42
	movl	-40(%ebp), %eax
	movzbl	(%eax), %eax
	.loc 1 683 41
	movb	%al, (%edx)
	.loc 1 684 36
	addl	$1, -12(%ebp)
	.loc 1 685 22
	addl	$1, -40(%ebp)
.L157:
	.loc 1 681 25
	movl	-40(%ebp), %eax
	movzbl	(%eax), %eax
	.loc 1 681 23
	testb	%al, %al
	jne	.L158
	.loc 1 689 20
	cmpl	$0, -28(%ebp)
	je	.L159
	.loc 1 690 27
	movl	$0, -32(%ebp)
	.loc 1 690 21
	jmp	.L160
.L161:
	.loc 1 693 28 discriminator 3
	movl	-12(%ebp), %edx
	movl	8(%ebp), %eax
	addl	%edx, %eax
	.loc 1 693 45 discriminator 3
	movb	$32, (%eax)
	.loc 1 694 40 discriminator 3
	addl	$1, -12(%ebp)
	.loc 1 690 43 discriminator 3
	addl	$1, -32(%ebp)
.L160:
	.loc 1 690 21 discriminator 1
	movl	-32(%ebp), %eax
	cmpl	-56(%ebp), %eax
	jl	.L161
.L159:
	.loc 1 698 20
	addl	$1, 12(%ebp)
	.loc 1 699 17
	jmp	.L120
.L151:
.LBE11:
	.loc 1 703 17
	movl	12(%ebp), %eax
	movzbl	(%eax), %eax
	.loc 1 703 16
	cmpb	$102, %al
	jne	.L162
.LBB12:
	.loc 1 706 24
	movl	16(%ebp), %eax
	leal	8(%eax), %edx
	movl	%edx, 16(%ebp)
	fldl	(%eax)
	fstpl	-80(%ebp)
	.loc 1 709 17
	pushl	-20(%ebp)
	leal	-144(%ebp), %eax
	pushl	%eax
	pushl	-76(%ebp)
	pushl	-80(%ebp)
	call	cgc_float_to_str
	addl	$16, %esp
	.loc 1 712 33
	movl	-16(%ebp), %esi
	.loc 1 712 35
	subl	$12, %esp
	leal	-144(%ebp), %eax
	pushl	%eax
	call	cgc_strlen@PLT
	addl	$16, %esp
	.loc 1 712 33
	subl	%eax, %esi
	movl	%esi, %eax
	.loc 1 712 25
	movl	%eax, -56(%ebp)
	.loc 1 715 20
	cmpl	$0, -28(%ebp)
	jne	.L163
	.loc 1 716 27
	movl	$0, -32(%ebp)
	.loc 1 716 21
	jmp	.L164
.L167:
	.loc 1 718 28
	cmpl	$0, -24(%ebp)
	je	.L165
	.loc 1 719 32
	movl	-12(%ebp), %edx
	movl	8(%ebp), %eax
	addl	%edx, %eax
	.loc 1 719 49
	movb	$48, (%eax)
	jmp	.L166
.L165:
	.loc 1 721 32
	movl	-12(%ebp), %edx
	movl	8(%ebp), %eax
	addl	%edx, %eax
	.loc 1 721 49
	movb	$32, (%eax)
.L166:
	.loc 1 723 40 discriminator 2
	addl	$1, -12(%ebp)
	.loc 1 716 43 discriminator 2
	addl	$1, -32(%ebp)
.L164:
	.loc 1 716 21 discriminator 1
	movl	-32(%ebp), %eax
	cmpl	-56(%ebp), %eax
	jl	.L167
.L163:
	.loc 1 728 19
	leal	-144(%ebp), %eax
	movl	%eax, -44(%ebp)
	.loc 1 729 23
	jmp	.L168
.L169:
	.loc 1 731 24
	movl	-12(%ebp), %edx
	movl	8(%ebp), %eax
	addl	%eax, %edx
	.loc 1 731 43
	movl	-44(%ebp), %eax
	movzbl	(%eax), %eax
	.loc 1 731 41
	movb	%al, (%edx)
	.loc 1 732 36
	addl	$1, -12(%ebp)
	.loc 1 733 22
	addl	$1, -44(%ebp)
.L168:
	.loc 1 729 25
	movl	-44(%ebp), %eax
	movzbl	(%eax), %eax
	.loc 1 729 23
	testb	%al, %al
	jne	.L169
	.loc 1 735 20
	addl	$1, 12(%ebp)
	.loc 1 736 17
	jmp	.L120
.L162:
.LBE12:
	.loc 1 739 17
	movl	12(%ebp), %eax
	movzbl	(%eax), %eax
	.loc 1 739 16
	cmpb	$115, %al
	jne	.L120
.LBB13:
	.loc 1 741 23
	movl	16(%ebp), %eax
	leal	4(%eax), %edx
	movl	%edx, 16(%ebp)
	movl	(%eax), %eax
	movl	%eax, -48(%ebp)
	.loc 1 744 20
	cmpl	$0, -20(%ebp)
	jle	.L170
	.loc 1 744 50 discriminator 1
	subl	$12, %esp
	pushl	-48(%ebp)
	call	cgc_strlen@PLT
	addl	$16, %esp
	movl	%eax, %edx
	.loc 1 744 48 discriminator 1
	movl	-20(%ebp), %eax
	.loc 1 744 35 discriminator 1
	cmpl	%eax, %edx
	jbe	.L170
	.loc 1 746 35
	movl	-20(%ebp), %eax
	movl	%eax, -52(%ebp)
	jmp	.L171
.L170:
	.loc 1 748 37
	subl	$12, %esp
	pushl	-48(%ebp)
	call	cgc_strlen@PLT
	addl	$16, %esp
	.loc 1 748 35
	movl	%eax, -52(%ebp)
.L171:
	.loc 1 751 25
	movl	-16(%ebp), %eax
	subl	-52(%ebp), %eax
	movl	%eax, -56(%ebp)
	.loc 1 755 20
	cmpl	$0, -28(%ebp)
	jne	.L177
	.loc 1 756 27
	movl	$0, -32(%ebp)
	.loc 1 756 21
	jmp	.L173
.L176:
	.loc 1 758 28
	cmpl	$0, -24(%ebp)
	je	.L174
	.loc 1 759 32
	movl	-12(%ebp), %edx
	movl	8(%ebp), %eax
	addl	%edx, %eax
	.loc 1 759 49
	movb	$48, (%eax)
	jmp	.L175
.L174:
	.loc 1 761 32
	movl	-12(%ebp), %edx
	movl	8(%ebp), %eax
	addl	%edx, %eax
	.loc 1 761 49
	movb	$32, (%eax)
.L175:
	.loc 1 762 40 discriminator 2
	addl	$1, -12(%ebp)
	.loc 1 756 43 discriminator 2
	addl	$1, -32(%ebp)
.L173:
	.loc 1 756 21 discriminator 1
	movl	-32(%ebp), %eax
	cmpl	-56(%ebp), %eax
	jl	.L176
	.loc 1 766 23
	jmp	.L177
.L179:
	.loc 1 768 24
	movl	-12(%ebp), %edx
	movl	8(%ebp), %eax
	addl	%eax, %edx
	.loc 1 768 43
	movl	-48(%ebp), %eax
	movzbl	(%eax), %eax
	.loc 1 768 41
	movb	%al, (%edx)
	.loc 1 769 36
	addl	$1, -12(%ebp)
	.loc 1 770 31
	addl	$1, -48(%ebp)
	.loc 1 771 21
	subl	$1, -52(%ebp)
.L177:
	.loc 1 766 25
	movl	-48(%ebp), %eax
	movzbl	(%eax), %eax
	.loc 1 766 23
	testb	%al, %al
	je	.L178
	.loc 1 766 37 discriminator 1
	cmpl	$0, -52(%ebp)
	jg	.L179
.L178:
	.loc 1 775 20
	cmpl	$0, -28(%ebp)
	je	.L180
	.loc 1 776 27
	movl	$0, -32(%ebp)
	.loc 1 776 21
	jmp	.L181
.L182:
	.loc 1 779 28 discriminator 3
	movl	-12(%ebp), %edx
	movl	8(%ebp), %eax
	addl	%edx, %eax
	.loc 1 779 45 discriminator 3
	movb	$32, (%eax)
	.loc 1 780 40 discriminator 3
	addl	$1, -12(%ebp)
	.loc 1 776 43 discriminator 3
	addl	$1, -32(%ebp)
.L181:
	.loc 1 776 21 discriminator 1
	movl	-32(%ebp), %eax
	cmpl	-56(%ebp), %eax
	jl	.L182
.L180:
	.loc 1 784 20
	addl	$1, 12(%ebp)
	.loc 1 785 17
	jmp	.L120
.L121:
.LBE13:
	.loc 1 792 16
	movl	-12(%ebp), %edx
	movl	8(%ebp), %eax
	addl	%eax, %edx
	.loc 1 792 35
	movl	12(%ebp), %eax
	movzbl	(%eax), %eax
	.loc 1 792 33
	movb	%al, (%edx)
	.loc 1 793 16
	addl	$1, 12(%ebp)
	.loc 1 795 28
	addl	$1, -12(%ebp)
.L120:
	.loc 1 513 13
	movl	12(%ebp), %eax
	movzbl	(%eax), %eax
	.loc 1 513 11
	testb	%al, %al
	jne	.L183
	.loc 1 799 12
	movl	-12(%ebp), %eax
.L184:
	.loc 1 800 1 discriminator 1
	leal	-8(%ebp), %esp
	popl	%ebx
	.cfi_restore 3
	popl	%esi
	.cfi_restore 6
	popl	%ebp
	.cfi_restore 5
	.cfi_def_cfa 4, 4
	ret
	.cfi_endproc
.LFE5:
	.size	cgc_vsprintf, .-cgc_vsprintf
	.globl	cgc_printf
	.type	cgc_printf, @function
cgc_printf:
.LFB6:
	.loc 1 803 1
	.cfi_startproc
	pushl	%ebp
	.cfi_def_cfa_offset 8
	.cfi_offset 5, -8
	movl	%esp, %ebp
	.cfi_def_cfa_register 5
	subl	$4120, %esp
	call	__x86.get_pc_thunk.ax
	addl	$_GLOBAL_OFFSET_TABLE_, %eax
	.loc 1 809 5
	leal	12(%ebp), %eax
	movl	%eax, -16(%ebp)
	.loc 1 814 12
	movl	-16(%ebp), %eax
	subl	$8, %esp
	pushl	%eax
	pushl	8(%ebp)
	call	cgc_vprintf
	addl	$16, %esp
	movl	%eax, -12(%ebp)
	.loc 1 817 12
	movl	-12(%ebp), %eax
	.loc 1 818 1
	leave
	.cfi_restore 5
	.cfi_def_cfa 4, 4
	ret
	.cfi_endproc
.LFE6:
	.size	cgc_printf, .-cgc_printf
	.globl	cgc_sprintf
	.type	cgc_sprintf, @function
cgc_sprintf:
.LFB7:
	.loc 1 821 1
	.cfi_startproc
	pushl	%ebp
	.cfi_def_cfa_offset 8
	.cfi_offset 5, -8
	movl	%esp, %ebp
	.cfi_def_cfa_register 5
	subl	$24, %esp
	call	__x86.get_pc_thunk.ax
	addl	$_GLOBAL_OFFSET_TABLE_, %eax
	.loc 1 825 5
	leal	16(%ebp), %eax
	movl	%eax, -16(%ebp)
	.loc 1 826 12
	movl	-16(%ebp), %eax
	subl	$4, %esp
	pushl	%eax
	pushl	12(%ebp)
	pushl	8(%ebp)
	call	cgc_vsprintf
	addl	$16, %esp
	movl	%eax, -12(%ebp)
	.loc 1 829 12
	movl	-12(%ebp), %eax
	.loc 1 830 1
	leave
	.cfi_restore 5
	.cfi_def_cfa 4, 4
	ret
	.cfi_endproc
.LFE7:
	.size	cgc_sprintf, .-cgc_sprintf
	.section	.rodata
	.align 8
.LC4:
	.long	2296604913
	.long	1054144693
	.align 8
.LC5:
	.long	0
	.long	1076101120
	.align 8
.LC6:
	.long	2296604913
	.long	1055193269
	.section	.text.__x86.get_pc_thunk.ax,"axG",@progbits,__x86.get_pc_thunk.ax,comdat
	.globl	__x86.get_pc_thunk.ax
	.hidden	__x86.get_pc_thunk.ax
	.type	__x86.get_pc_thunk.ax, @function
__x86.get_pc_thunk.ax:
.LFB8:
	.cfi_startproc
	movl	(%esp), %eax
	ret
	.cfi_endproc
.LFE8:
	.section	.text.__x86.get_pc_thunk.bx,"axG",@progbits,__x86.get_pc_thunk.bx,comdat
	.globl	__x86.get_pc_thunk.bx
	.hidden	__x86.get_pc_thunk.bx
	.type	__x86.get_pc_thunk.bx, @function
__x86.get_pc_thunk.bx:
.LFB9:
	.cfi_startproc
	movl	(%esp), %ebx
	ret
	.cfi_endproc
.LFE9:
	.text
.Letext0:
	.file 2 "/home/pdreiter/Data/APR_eval/GenProg/trans.src-v24.cb_eval/include/libcgc.h"
	.file 3 "/home/pdreiter/Data/APR_eval/GenProg/trans.src-v24.cb_eval/SCUBA_Dive_Logging/lib/cgc_stdarg.h"
	.section	.note.GNU-stack,"",@progbits
