	.file	"stdlib.c"
	.text
.Ltext0:
	.globl	cgc_memcpy
	.type	cgc_memcpy, @function
cgc_memcpy:
.LFB0:
	.file 1 "/home/pdreiter/Data/APR_eval/GenProg/trans.src-v24.cb_eval/SCUBA_Dive_Logging/lib/stdlib.c"
	.loc 1 31 1
	.cfi_startproc
	pushl	%ebp
	.cfi_def_cfa_offset 8
	.cfi_offset 5, -8
	movl	%esp, %ebp
	.cfi_def_cfa_register 5
	subl	$16, %esp
	call	__x86.get_pc_thunk.ax
	addl	$_GLOBAL_OFFSET_TABLE_, %eax
	.loc 1 32 20
	movl	$0, -4(%ebp)
	.loc 1 34 15
	jmp	.L2
.L3:
	.loc 1 35 52
	movl	12(%ebp), %edx
	movl	-4(%ebp), %eax
	addl	%edx, %eax
	.loc 1 35 30
	movl	8(%ebp), %ecx
	movl	-4(%ebp), %edx
	addl	%ecx, %edx
	.loc 1 35 52
	movzbl	(%eax), %eax
	.loc 1 35 38
	movb	%al, (%edx)
	.loc 1 36 22
	addl	$1, -4(%ebp)
.L2:
	.loc 1 34 15
	movl	-4(%ebp), %eax
	cmpl	16(%ebp), %eax
	jb	.L3
	.loc 1 39 16
	movl	-4(%ebp), %eax
	.loc 1 40 1
	leave
	.cfi_restore 5
	.cfi_def_cfa 4, 4
	ret
	.cfi_endproc
.LFE0:
	.size	cgc_memcpy, .-cgc_memcpy
	.globl	cgc_islower
	.type	cgc_islower, @function
cgc_islower:
.LFB1:
	.loc 1 43 1
	.cfi_startproc
	pushl	%ebp
	.cfi_def_cfa_offset 8
	.cfi_offset 5, -8
	movl	%esp, %ebp
	.cfi_def_cfa_register 5
	call	__x86.get_pc_thunk.ax
	addl	$_GLOBAL_OFFSET_TABLE_, %eax
	.loc 1 44 12
	cmpl	$96, 8(%ebp)
	jle	.L6
	.loc 1 44 24 discriminator 1
	cmpl	$122, 8(%ebp)
	jg	.L6
	.loc 1 45 24
	movl	$1, %eax
	jmp	.L7
.L6:
	.loc 1 47 24
	movl	$0, %eax
.L7:
	.loc 1 48 1
	popl	%ebp
	.cfi_restore 5
	.cfi_def_cfa 4, 4
	ret
	.cfi_endproc
.LFE1:
	.size	cgc_islower, .-cgc_islower
	.globl	cgc_isupper
	.type	cgc_isupper, @function
cgc_isupper:
.LFB2:
	.loc 1 51 1
	.cfi_startproc
	pushl	%ebp
	.cfi_def_cfa_offset 8
	.cfi_offset 5, -8
	movl	%esp, %ebp
	.cfi_def_cfa_register 5
	call	__x86.get_pc_thunk.ax
	addl	$_GLOBAL_OFFSET_TABLE_, %eax
	.loc 1 52 12
	cmpl	$64, 8(%ebp)
	jle	.L9
	.loc 1 52 24 discriminator 1
	cmpl	$90, 8(%ebp)
	jg	.L9
	.loc 1 53 24
	movl	$1, %eax
	jmp	.L10
.L9:
	.loc 1 55 24
	movl	$0, %eax
.L10:
	.loc 1 56 1
	popl	%ebp
	.cfi_restore 5
	.cfi_def_cfa 4, 4
	ret
	.cfi_endproc
.LFE2:
	.size	cgc_isupper, .-cgc_isupper
	.globl	cgc_isalpha
	.type	cgc_isalpha, @function
cgc_isalpha:
.LFB3:
	.loc 1 59 1
	.cfi_startproc
	pushl	%ebp
	.cfi_def_cfa_offset 8
	.cfi_offset 5, -8
	movl	%esp, %ebp
	.cfi_def_cfa_register 5
	pushl	%ebx
	.cfi_offset 3, -12
	call	__x86.get_pc_thunk.ax
	addl	$_GLOBAL_OFFSET_TABLE_, %eax
	.loc 1 60 16
	pushl	8(%ebp)
	call	cgc_islower
	addl	$4, %esp
	movl	%eax, %ebx
	.loc 1 60 35
	pushl	8(%ebp)
	call	cgc_isupper
	addl	$4, %esp
	.loc 1 60 33
	orl	%ebx, %eax
	.loc 1 61 1
	movl	-4(%ebp), %ebx
	leave
	.cfi_restore 5
	.cfi_restore 3
	.cfi_def_cfa 4, 4
	ret
	.cfi_endproc
.LFE3:
	.size	cgc_isalpha, .-cgc_isalpha
	.globl	cgc_isalnum
	.type	cgc_isalnum, @function
cgc_isalnum:
.LFB4:
	.loc 1 64 1
	.cfi_startproc
	pushl	%ebp
	.cfi_def_cfa_offset 8
	.cfi_offset 5, -8
	movl	%esp, %ebp
	.cfi_def_cfa_register 5
	pushl	%ebx
	subl	$4, %esp
	.cfi_offset 3, -12
	call	__x86.get_pc_thunk.ax
	addl	$_GLOBAL_OFFSET_TABLE_, %eax
	.loc 1 65 16
	pushl	8(%ebp)
	call	cgc_isalpha
	addl	$4, %esp
	movl	%eax, %ebx
	.loc 1 65 35
	subl	$12, %esp
	pushl	8(%ebp)
	call	cgc_isdigit
	addl	$16, %esp
	.loc 1 65 33
	orl	%ebx, %eax
	.loc 1 66 1
	movl	-4(%ebp), %ebx
	leave
	.cfi_restore 5
	.cfi_restore 3
	.cfi_def_cfa 4, 4
	ret
	.cfi_endproc
.LFE4:
	.size	cgc_isalnum, .-cgc_isalnum
	.globl	cgc_isspace
	.type	cgc_isspace, @function
cgc_isspace:
.LFB5:
	.loc 1 69 1
	.cfi_startproc
	pushl	%ebp
	.cfi_def_cfa_offset 8
	.cfi_offset 5, -8
	movl	%esp, %ebp
	.cfi_def_cfa_register 5
	call	__x86.get_pc_thunk.ax
	addl	$_GLOBAL_OFFSET_TABLE_, %eax
	.loc 1 70 8
	cmpl	$32, 8(%ebp)
	je	.L16
	.loc 1 70 19 discriminator 1
	cmpl	$9, 8(%ebp)
	je	.L16
	.loc 1 71 20
	cmpl	$10, 8(%ebp)
	je	.L16
	.loc 1 72 20
	cmpl	$11, 8(%ebp)
	je	.L16
	.loc 1 73 20
	cmpl	$12, 8(%ebp)
	je	.L16
	.loc 1 74 20
	cmpl	$13, 8(%ebp)
	jne	.L17
.L16:
	.loc 1 76 16
	movl	$1, %eax
	jmp	.L18
.L17:
	.loc 1 78 16
	movl	$0, %eax
.L18:
	.loc 1 79 1
	popl	%ebp
	.cfi_restore 5
	.cfi_def_cfa 4, 4
	ret
	.cfi_endproc
.LFE5:
	.size	cgc_isspace, .-cgc_isspace
	.globl	cgc_isdigit
	.type	cgc_isdigit, @function
cgc_isdigit:
.LFB6:
	.loc 1 82 1
	.cfi_startproc
	pushl	%ebp
	.cfi_def_cfa_offset 8
	.cfi_offset 5, -8
	movl	%esp, %ebp
	.cfi_def_cfa_register 5
	call	__x86.get_pc_thunk.ax
	addl	$_GLOBAL_OFFSET_TABLE_, %eax
	.loc 1 83 8
	cmpl	$47, 8(%ebp)
	jle	.L20
	.loc 1 83 19 discriminator 1
	cmpl	$57, 8(%ebp)
	jg	.L20
	.loc 1 84 16
	movl	$1, %eax
	jmp	.L21
.L20:
	.loc 1 86 16
	movl	$0, %eax
.L21:
	.loc 1 87 1
	popl	%ebp
	.cfi_restore 5
	.cfi_def_cfa 4, 4
	ret
	.cfi_endproc
.LFE6:
	.size	cgc_isdigit, .-cgc_isdigit
	.globl	cgc_isnan
	.type	cgc_isnan, @function
cgc_isnan:
.LFB7:
	.loc 1 90 1
	.cfi_startproc
	pushl	%ebp
	.cfi_def_cfa_offset 8
	.cfi_offset 5, -8
	movl	%esp, %ebp
	.cfi_def_cfa_register 5
	subl	$8, %esp
	call	__x86.get_pc_thunk.ax
	addl	$_GLOBAL_OFFSET_TABLE_, %eax
	movl	8(%ebp), %eax
	movl	%eax, -8(%ebp)
	movl	12(%ebp), %eax
	movl	%eax, -4(%ebp)
	.loc 1 91 12
	fldl	-8(%ebp)
	fldl	-8(%ebp)
	fucomip	%st(1), %st
	fstp	%st(0)
	setp	%al
	movzbl	%al, %eax
	.loc 1 92 1
	leave
	.cfi_restore 5
	.cfi_def_cfa 4, 4
	ret
	.cfi_endproc
.LFE7:
	.size	cgc_isnan, .-cgc_isnan
	.globl	cgc_isinf
	.type	cgc_isinf, @function
cgc_isinf:
.LFB8:
	.loc 1 95 1
	.cfi_startproc
	pushl	%ebp
	.cfi_def_cfa_offset 8
	.cfi_offset 5, -8
	movl	%esp, %ebp
	.cfi_def_cfa_register 5
	subl	$8, %esp
	call	__x86.get_pc_thunk.ax
	addl	$_GLOBAL_OFFSET_TABLE_, %eax
	movl	8(%ebp), %eax
	movl	%eax, -8(%ebp)
	movl	12(%ebp), %eax
	movl	%eax, -4(%ebp)
	.loc 1 96 12
	fldl	-8(%ebp)
	fxam
	fnstsw	%ax
	fstp	%st(0)
	andb	$69, %ah
	cmpb	$5, %ah
	sete	%al
	movzbl	%al, %eax
	.loc 1 97 1
	leave
	.cfi_restore 5
	.cfi_def_cfa 4, 4
	ret
	.cfi_endproc
.LFE8:
	.size	cgc_isinf, .-cgc_isinf
	.globl	cgc_atof
	.type	cgc_atof, @function
cgc_atof:
.LFB9:
	.loc 1 100 1
	.cfi_startproc
	pushl	%ebp
	.cfi_def_cfa_offset 8
	.cfi_offset 5, -8
	movl	%esp, %ebp
	.cfi_def_cfa_register 5
	pushl	%ebx
	subl	$44, %esp
	.cfi_offset 3, -12
	call	__x86.get_pc_thunk.bx
	addl	$_GLOBAL_OFFSET_TABLE_, %ebx
	.loc 1 101 8
	cmpl	$0, 8(%ebp)
	jne	.L27
	.loc 1 102 16
	fldz
	jmp	.L28
.L27:
	.loc 1 104 12
	fldz
	fstpl	-16(%ebp)
	.loc 1 105 12
	fldl	.LC1@GOTOFF(%ebx)
	fstpl	-24(%ebp)
	.loc 1 106 9
	movl	$1, -28(%ebp)
	.loc 1 110 11
	jmp	.L29
.L30:
	.loc 1 111 12
	addl	$1, 8(%ebp)
.L29:
	.loc 1 110 29
	movl	8(%ebp), %eax
	movzbl	(%eax), %eax
	.loc 1 110 13
	movsbl	%al, %eax
	pushl	%eax
	call	cgc_isspace
	addl	$4, %esp
	.loc 1 110 11
	testl	%eax, %eax
	jne	.L30
	.loc 1 113 10
	movl	$0, -32(%ebp)
	.loc 1 115 10
	jmp	.L31
.L46:
	.loc 1 117 17
	movl	8(%ebp), %eax
	movzbl	(%eax), %eax
	.loc 1 117 12
	cmpb	$45, %al
	jne	.L32
	.loc 1 119 16
	cmpl	$0, -32(%ebp)
	je	.L33
	.loc 1 120 24
	fldz
	jmp	.L28
.L33:
	.loc 1 122 18
	movl	$-1, -28(%ebp)
	.loc 1 123 17
	addl	$1, -32(%ebp)
	jmp	.L34
.L32:
	.loc 1 125 22
	movl	8(%ebp), %eax
	movzbl	(%eax), %eax
	.loc 1 125 17
	cmpb	$43, %al
	jne	.L35
	.loc 1 127 16
	cmpl	$0, -32(%ebp)
	je	.L36
	.loc 1 128 24
	fldz
	jmp	.L28
.L36:
	.loc 1 130 17
	addl	$1, -32(%ebp)
	jmp	.L34
.L35:
	.loc 1 132 22
	movl	8(%ebp), %eax
	movzbl	(%eax), %eax
	.loc 1 132 17
	cmpb	$46, %al
	jne	.L37
	.loc 1 134 16
	cmpl	$0, -32(%ebp)
	je	.L38
	.loc 1 134 28 discriminator 1
	cmpl	$1, -32(%ebp)
	jne	.L39
.L38:
	.loc 1 135 22
	movl	$2, -32(%ebp)
	jmp	.L34
.L39:
	.loc 1 137 24
	fldz
	jmp	.L28
.L37:
	.loc 1 139 32
	movl	8(%ebp), %eax
	movzbl	(%eax), %eax
	.loc 1 139 19
	movsbl	%al, %eax
	pushl	%eax
	call	cgc_isdigit
	addl	$4, %esp
	.loc 1 139 17
	testl	%eax, %eax
	je	.L47
	.loc 1 141 16
	cmpl	$0, -32(%ebp)
	je	.L41
	.loc 1 141 28 discriminator 1
	cmpl	$1, -32(%ebp)
	jne	.L42
.L41:
	.loc 1 144 22
	movl	$1, -32(%ebp)
	.loc 1 145 28
	fldl	-16(%ebp)
	fldl	.LC2@GOTOFF(%ebx)
	fmulp	%st, %st(1)
	.loc 1 145 39
	movl	8(%ebp), %eax
	movzbl	(%eax), %eax
	movsbl	%al, %eax
	.loc 1 145 44
	subl	$48, %eax
	.loc 1 145 36
	movl	%eax, -44(%ebp)
	fildl	-44(%ebp)
	.loc 1 145 21
	faddp	%st, %st(1)
	fstpl	-16(%ebp)
	jmp	.L34
.L42:
	.loc 1 147 21
	cmpl	$2, -32(%ebp)
	jne	.L44
	.loc 1 149 26
	movl	8(%ebp), %eax
	movzbl	(%eax), %eax
	movsbl	%al, %eax
	.loc 1 149 31
	subl	$48, %eax
	.loc 1 149 38
	movl	%eax, -44(%ebp)
	fildl	-44(%ebp)
	fmull	-24(%ebp)
	.loc 1 149 21
	fldl	-16(%ebp)
	faddp	%st, %st(1)
	fstpl	-16(%ebp)
	.loc 1 150 23
	fldl	-24(%ebp)
	fldl	.LC2@GOTOFF(%ebx)
	fdivrp	%st, %st(1)
	fstpl	-24(%ebp)
	jmp	.L34
.L44:
	.loc 1 155 24
	fldz
	jmp	.L28
.L34:
	.loc 1 161 12
	addl	$1, 8(%ebp)
.L31:
	.loc 1 115 15
	movl	8(%ebp), %eax
	movzbl	(%eax), %eax
	.loc 1 115 10
	testb	%al, %al
	jne	.L46
	jmp	.L45
.L47:
	.loc 1 159 13
	nop
.L45:
	.loc 1 164 18
	fildl	-28(%ebp)
	fmull	-16(%ebp)
.L28:
	.loc 1 165 1
	movl	-4(%ebp), %ebx
	leave
	.cfi_restore 5
	.cfi_restore 3
	.cfi_def_cfa 4, 4
	ret
	.cfi_endproc
.LFE9:
	.size	cgc_atof, .-cgc_atof
	.globl	cgc_atoi
	.type	cgc_atoi, @function
cgc_atoi:
.LFB10:
	.loc 1 169 1
	.cfi_startproc
	pushl	%ebp
	.cfi_def_cfa_offset 8
	.cfi_offset 5, -8
	movl	%esp, %ebp
	.cfi_def_cfa_register 5
	subl	$16, %esp
	call	__x86.get_pc_thunk.ax
	addl	$_GLOBAL_OFFSET_TABLE_, %eax
	.loc 1 170 8
	cmpl	$0, 8(%ebp)
	jne	.L49
	.loc 1 171 16
	movl	$0, %eax
	jmp	.L50
.L49:
	.loc 1 173 9
	movl	$0, -4(%ebp)
	.loc 1 174 9
	movl	$1, -8(%ebp)
	.loc 1 176 9
	movl	$0, -16(%ebp)
	.loc 1 179 11
	jmp	.L51
.L52:
	.loc 1 180 12
	addl	$1, 8(%ebp)
.L51:
	.loc 1 179 29
	movl	8(%ebp), %eax
	movzbl	(%eax), %eax
	.loc 1 179 13
	movsbl	%al, %eax
	pushl	%eax
	call	cgc_isspace
	addl	$4, %esp
	.loc 1 179 11
	testl	%eax, %eax
	jne	.L52
	.loc 1 182 10
	movl	$0, -12(%ebp)
	.loc 1 184 10
	jmp	.L53
.L65:
	.loc 1 186 17
	movl	8(%ebp), %eax
	movzbl	(%eax), %eax
	.loc 1 186 12
	cmpb	$45, %al
	jne	.L54
	.loc 1 188 16
	cmpl	$0, -12(%ebp)
	je	.L55
	.loc 1 189 24
	movl	$0, %eax
	jmp	.L50
.L55:
	.loc 1 191 18
	movl	$-1, -8(%ebp)
	.loc 1 192 17
	addl	$1, -12(%ebp)
	jmp	.L56
.L54:
	.loc 1 194 22
	movl	8(%ebp), %eax
	movzbl	(%eax), %eax
	.loc 1 194 17
	cmpb	$43, %al
	jne	.L57
	.loc 1 196 16
	cmpl	$0, -12(%ebp)
	je	.L58
	.loc 1 197 24
	movl	$0, %eax
	jmp	.L50
.L58:
	.loc 1 199 17
	addl	$1, -12(%ebp)
	jmp	.L56
.L57:
	.loc 1 201 32
	movl	8(%ebp), %eax
	movzbl	(%eax), %eax
	.loc 1 201 19
	movsbl	%al, %eax
	pushl	%eax
	call	cgc_isdigit
	addl	$4, %esp
	.loc 1 201 17
	testl	%eax, %eax
	je	.L66
	.loc 1 203 16
	cmpl	$0, -12(%ebp)
	je	.L60
	.loc 1 203 28 discriminator 1
	cmpl	$1, -12(%ebp)
	jne	.L61
.L60:
	.loc 1 206 22
	movl	$1, -12(%ebp)
	.loc 1 207 46
	movl	-4(%ebp), %edx
	movl	%edx, %eax
	sall	$2, %eax
	addl	%edx, %eax
	addl	%eax, %eax
	movl	%eax, %edx
	.loc 1 207 55
	movl	8(%ebp), %eax
	movzbl	(%eax), %eax
	movsbl	%al, %eax
	.loc 1 207 60
	subl	$48, %eax
	.loc 1 207 30
	addl	%edx, %eax
	movl	%eax, -4(%ebp)
	.loc 1 209 28
	addl	$1, -16(%ebp)
	.loc 1 211 20
	cmpl	$10, -16(%ebp)
	jne	.L56
	.loc 1 212 21
	jmp	.L63
.L61:
	.loc 1 217 24
	movl	$0, %eax
	jmp	.L50
.L56:
	.loc 1 223 12
	addl	$1, 8(%ebp)
.L53:
	.loc 1 184 15
	movl	8(%ebp), %eax
	movzbl	(%eax), %eax
	.loc 1 184 10
	testb	%al, %al
	jne	.L65
	jmp	.L63
.L66:
	.loc 1 221 13
	nop
.L63:
	.loc 1 226 18
	movl	-8(%ebp), %eax
	imull	-4(%ebp), %eax
.L50:
	.loc 1 227 1
	leave
	.cfi_restore 5
	.cfi_def_cfa 4, 4
	ret
	.cfi_endproc
.LFE10:
	.size	cgc_atoi, .-cgc_atoi
	.globl	cgc_strcpy
	.type	cgc_strcpy, @function
cgc_strcpy:
.LFB11:
	.loc 1 230 1
	.cfi_startproc
	pushl	%ebp
	.cfi_def_cfa_offset 8
	.cfi_offset 5, -8
	movl	%esp, %ebp
	.cfi_def_cfa_register 5
	subl	$16, %esp
	call	__x86.get_pc_thunk.ax
	addl	$_GLOBAL_OFFSET_TABLE_, %eax
	.loc 1 233 13
	movl	$0, -4(%ebp)
.L70:
	.loc 1 235 17
	movl	12(%ebp), %edx
	movl	-4(%ebp), %eax
	addl	%edx, %eax
	movzbl	(%eax), %eax
	.loc 1 235 12
	testb	%al, %al
	je	.L73
	.loc 1 238 22
	movl	12(%ebp), %edx
	movl	-4(%ebp), %eax
	addl	%edx, %eax
	.loc 1 238 13
	movl	8(%ebp), %ecx
	movl	-4(%ebp), %edx
	addl	%ecx, %edx
	.loc 1 238 22
	movzbl	(%eax), %eax
	.loc 1 238 17
	movb	%al, (%edx)
	.loc 1 233 21
	addl	$1, -4(%ebp)
	.loc 1 235 12
	jmp	.L70
.L73:
	.loc 1 236 13
	nop
	.loc 1 240 9
	movl	8(%ebp), %edx
	movl	-4(%ebp), %eax
	addl	%edx, %eax
	.loc 1 240 13
	movb	$0, (%eax)
	.loc 1 242 12
	movl	8(%ebp), %eax
	.loc 1 243 1
	leave
	.cfi_restore 5
	.cfi_def_cfa 4, 4
	ret
	.cfi_endproc
.LFE11:
	.size	cgc_strcpy, .-cgc_strcpy
	.globl	cgc_strncpy
	.type	cgc_strncpy, @function
cgc_strncpy:
.LFB12:
	.loc 1 246 1
	.cfi_startproc
	pushl	%ebp
	.cfi_def_cfa_offset 8
	.cfi_offset 5, -8
	movl	%esp, %ebp
	.cfi_def_cfa_register 5
	subl	$16, %esp
	call	__x86.get_pc_thunk.ax
	addl	$_GLOBAL_OFFSET_TABLE_, %eax
	.loc 1 249 13
	movl	$0, -4(%ebp)
	.loc 1 249 5
	jmp	.L75
.L77:
	.loc 1 250 22 discriminator 4
	movl	12(%ebp), %edx
	movl	-4(%ebp), %eax
	addl	%edx, %eax
	.loc 1 250 13 discriminator 4
	movl	8(%ebp), %ecx
	movl	-4(%ebp), %edx
	addl	%ecx, %edx
	.loc 1 250 22 discriminator 4
	movzbl	(%eax), %eax
	.loc 1 250 17 discriminator 4
	movb	%al, (%edx)
	.loc 1 249 44 discriminator 4
	addl	$1, -4(%ebp)
.L75:
	.loc 1 249 5 discriminator 1
	movl	-4(%ebp), %eax
	cmpl	16(%ebp), %eax
	jnb	.L78
	.loc 1 249 30 discriminator 3
	movl	12(%ebp), %edx
	movl	-4(%ebp), %eax
	addl	%edx, %eax
	movzbl	(%eax), %eax
	.loc 1 249 24 discriminator 3
	testb	%al, %al
	jne	.L77
	.loc 1 251 5
	jmp	.L78
.L79:
	.loc 1 252 13 discriminator 2
	movl	8(%ebp), %edx
	movl	-4(%ebp), %eax
	addl	%edx, %eax
	.loc 1 252 17 discriminator 2
	movb	$0, (%eax)
	.loc 1 251 21 discriminator 2
	addl	$1, -4(%ebp)
.L78:
	.loc 1 251 5 discriminator 1
	movl	-4(%ebp), %eax
	cmpl	16(%ebp), %eax
	jb	.L79
	.loc 1 254 12
	movl	8(%ebp), %eax
	.loc 1 255 1
	leave
	.cfi_restore 5
	.cfi_def_cfa 4, 4
	ret
	.cfi_endproc
.LFE12:
	.size	cgc_strncpy, .-cgc_strncpy
	.globl	cgc_bzero
	.type	cgc_bzero, @function
cgc_bzero:
.LFB13:
	.loc 1 258 1
	.cfi_startproc
	pushl	%ebp
	.cfi_def_cfa_offset 8
	.cfi_offset 5, -8
	movl	%esp, %ebp
	.cfi_def_cfa_register 5
	subl	$16, %esp
	call	__x86.get_pc_thunk.ax
	addl	$_GLOBAL_OFFSET_TABLE_, %eax
	.loc 1 259 16
	movl	$0, -4(%ebp)
	.loc 1 260 20
	movl	8(%ebp), %eax
	movl	%eax, -8(%ebp)
	.loc 1 262 8
	cmpl	$0, 8(%ebp)
	je	.L88
	.loc 1 266 8
	cmpl	$0, 12(%ebp)
	je	.L89
	.loc 1 270 17
	movl	$0, -4(%ebp)
	.loc 1 270 5
	jmp	.L85
.L86:
	.loc 1 271 10 discriminator 3
	movl	-8(%ebp), %edx
	movl	-4(%ebp), %eax
	addl	%edx, %eax
	.loc 1 271 18 discriminator 3
	movb	$0, (%eax)
	.loc 1 270 40 discriminator 3
	addl	$1, -4(%ebp)
.L85:
	.loc 1 270 5 discriminator 1
	movl	-4(%ebp), %eax
	cmpl	12(%ebp), %eax
	jb	.L86
	.loc 1 274 1
	jmp	.L83
.L88:
	.loc 1 263 9
	nop
	jmp	.L83
.L89:
	.loc 1 267 9
	nop
.L83:
	.loc 1 275 5
	nop
	.loc 1 276 1
	leave
	.cfi_restore 5
	.cfi_def_cfa 4, 4
	ret
	.cfi_endproc
.LFE13:
	.size	cgc_bzero, .-cgc_bzero
	.globl	cgc_memset
	.type	cgc_memset, @function
cgc_memset:
.LFB14:
	.loc 1 279 1
	.cfi_startproc
	pushl	%ebp
	.cfi_def_cfa_offset 8
	.cfi_offset 5, -8
	movl	%esp, %ebp
	.cfi_def_cfa_register 5
	subl	$16, %esp
	call	__x86.get_pc_thunk.ax
	addl	$_GLOBAL_OFFSET_TABLE_, %eax
	.loc 1 280 20
	movl	8(%ebp), %eax
	movl	%eax, -4(%ebp)
	.loc 1 281 11
	jmp	.L91
.L92:
	.loc 1 282 10
	movl	-4(%ebp), %edx
	movl	16(%ebp), %eax
	addl	%edx, %eax
	.loc 1 282 16
	movl	12(%ebp), %edx
	.loc 1 282 14
	movb	%dl, (%eax)
.L91:
	.loc 1 281 11
	subl	$1, 16(%ebp)
	cmpl	$0, 16(%ebp)
	jne	.L92
	.loc 1 283 6
	movl	-4(%ebp), %edx
	movl	16(%ebp), %eax
	addl	%edx, %eax
	.loc 1 283 12
	movl	12(%ebp), %edx
	.loc 1 283 10
	movb	%dl, (%eax)
	.loc 1 284 11
	movl	8(%ebp), %eax
	.loc 1 285 1
	leave
	.cfi_restore 5
	.cfi_def_cfa 4, 4
	ret
	.cfi_endproc
.LFE14:
	.size	cgc_memset, .-cgc_memset
	.globl	cgc_strcmp
	.type	cgc_strcmp, @function
cgc_strcmp:
.LFB15:
	.loc 1 288 1
	.cfi_startproc
	pushl	%ebp
	.cfi_def_cfa_offset 8
	.cfi_offset 5, -8
	movl	%esp, %ebp
	.cfi_def_cfa_register 5
	call	__x86.get_pc_thunk.ax
	addl	$_GLOBAL_OFFSET_TABLE_, %eax
	.loc 1 289 11
	jmp	.L95
.L97:
	.loc 1 291 9
	addl	$1, 8(%ebp)
	.loc 1 291 14
	addl	$1, 12(%ebp)
.L95:
	.loc 1 289 13
	movl	8(%ebp), %eax
	movzbl	(%eax), %eax
	.loc 1 289 11
	testb	%al, %al
	je	.L96
	.loc 1 289 21 discriminator 1
	movl	8(%ebp), %eax
	movzbl	(%eax), %edx
	.loc 1 289 28 discriminator 1
	movl	12(%ebp), %eax
	movzbl	(%eax), %eax
	.loc 1 289 17 discriminator 1
	cmpb	%al, %dl
	je	.L97
.L96:
	.loc 1 293 13
	movl	8(%ebp), %eax
	movzbl	(%eax), %eax
	movzbl	%al, %edx
	.loc 1 293 42
	movl	12(%ebp), %eax
	movzbl	(%eax), %eax
	movzbl	%al, %eax
	.loc 1 293 40
	subl	%eax, %edx
	movl	%edx, %eax
	.loc 1 294 1
	popl	%ebp
	.cfi_restore 5
	.cfi_def_cfa 4, 4
	ret
	.cfi_endproc
.LFE15:
	.size	cgc_strcmp, .-cgc_strcmp
	.globl	cgc_strncat
	.type	cgc_strncat, @function
cgc_strncat:
.LFB16:
	.loc 1 297 1
	.cfi_startproc
	pushl	%ebp
	.cfi_def_cfa_offset 8
	.cfi_offset 5, -8
	movl	%esp, %ebp
	.cfi_def_cfa_register 5
	subl	$24, %esp
	call	__x86.get_pc_thunk.ax
	addl	$_GLOBAL_OFFSET_TABLE_, %eax
	.loc 1 298 27
	subl	$12, %esp
	pushl	8(%ebp)
	call	cgc_strlen
	addl	$16, %esp
	movl	%eax, -16(%ebp)
	.loc 1 301 8
	cmpl	$0, 8(%ebp)
	je	.L100
	.loc 1 301 21 discriminator 1
	cmpl	$0, 12(%ebp)
	jne	.L101
.L100:
	.loc 1 303 13
	movl	8(%ebp), %eax
	jmp	.L102
.L101:
	.loc 1 305 12
	movl	$0, -12(%ebp)
	.loc 1 305 5
	jmp	.L103
.L105:
	.loc 1 307 29 discriminator 4
	movl	12(%ebp), %edx
	movl	-12(%ebp), %eax
	addl	%edx, %eax
	.loc 1 307 20 discriminator 4
	movl	-16(%ebp), %ecx
	movl	-12(%ebp), %edx
	addl	%edx, %ecx
	.loc 1 307 11 discriminator 4
	movl	8(%ebp), %edx
	addl	%ecx, %edx
	.loc 1 307 29 discriminator 4
	movzbl	(%eax), %eax
	.loc 1 307 24 discriminator 4
	movb	%al, (%edx)
	.loc 1 305 43 discriminator 4
	addl	$1, -12(%ebp)
.L103:
	.loc 1 305 5 discriminator 1
	movl	-12(%ebp), %eax
	cmpl	16(%ebp), %eax
	jnb	.L104
	.loc 1 305 29 discriminator 3
	movl	12(%ebp), %edx
	movl	-12(%ebp), %eax
	addl	%edx, %eax
	movzbl	(%eax), %eax
	.loc 1 305 23 discriminator 3
	testb	%al, %al
	jne	.L105
.L104:
	.loc 1 309 18
	movl	-16(%ebp), %edx
	movl	-12(%ebp), %eax
	addl	%eax, %edx
	.loc 1 309 9
	movl	8(%ebp), %eax
	addl	%edx, %eax
	.loc 1 309 22
	movb	$0, (%eax)
	.loc 1 311 11
	movl	8(%ebp), %eax
.L102:
	.loc 1 312 1
	leave
	.cfi_restore 5
	.cfi_def_cfa 4, 4
	ret
	.cfi_endproc
.LFE16:
	.size	cgc_strncat, .-cgc_strncat
	.globl	cgc_flush_input
	.type	cgc_flush_input, @function
cgc_flush_input:
.LFB17:
	.loc 1 314 29
	.cfi_startproc
	pushl	%ebp
	.cfi_def_cfa_offset 8
	.cfi_offset 5, -8
	movl	%esp, %ebp
	.cfi_def_cfa_register 5
	pushl	%esi
	pushl	%ebx
	subl	$1184, %esp
	.cfi_offset 6, -12
	.cfi_offset 3, -16
	call	__x86.get_pc_thunk.bx
	addl	$_GLOBAL_OFFSET_TABLE_, %ebx
.L111:
	.loc 1 324 9
	pushl	$128
	leal	-140(%ebp), %eax
	pushl	%eax
	call	cgc_bzero
	addl	$8, %esp
	.loc 1 325 35
	movl	8(%ebp), %eax
	shrl	$5, %eax
	.loc 1 325 61
	movl	-140(%ebp,%eax,4), %edx
	.loc 1 325 74
	movl	8(%ebp), %ecx
	andl	$31, %ecx
	.loc 1 325 67
	movl	$1, %esi
	sall	%cl, %esi
	movl	%esi, %ecx
	.loc 1 325 61
	orl	%ecx, %edx
	movl	%edx, -140(%ebp,%eax,4)
	.loc 1 327 19
	movl	$0, -152(%ebp)
	.loc 1 328 20
	movl	$10, -148(%ebp)
	.loc 1 330 15
	movl	8(%ebp), %eax
	leal	1(%eax), %edx
	subl	$12, %esp
	leal	-144(%ebp), %eax
	pushl	%eax
	leal	-152(%ebp), %eax
	pushl	%eax
	pushl	$0
	leal	-140(%ebp), %eax
	pushl	%eax
	pushl	%edx
	call	cgc_fdwait@PLT
	addl	$32, %esp
	movl	%eax, -12(%ebp)
	.loc 1 331 12
	cmpl	$0, -12(%ebp)
	je	.L107
	.loc 1 332 20
	movl	-12(%ebp), %eax
	jmp	.L112
.L107:
	.loc 1 335 40
	movl	8(%ebp), %eax
	shrl	$5, %eax
	.loc 1 335 36
	movl	-140(%ebp,%eax,4), %eax
	.loc 1 335 78
	movl	8(%ebp), %edx
	andl	$31, %edx
	.loc 1 335 71
	movl	$1, %esi
	movl	%edx, %ecx
	sall	%cl, %esi
	movl	%esi, %edx
	.loc 1 335 66
	andl	%edx, %eax
	.loc 1 335 12
	testl	%eax, %eax
	je	.L114
	.loc 1 338 13
	leal	-1180(%ebp), %eax
	pushl	%eax
	pushl	$1024
	leal	-1176(%ebp), %eax
	pushl	%eax
	pushl	8(%ebp)
	call	cgc_receive@PLT
	addl	$16, %esp
	.loc 1 324 9
	jmp	.L111
.L114:
	.loc 1 336 13
	nop
	.loc 1 342 12
	movl	$0, %eax
.L112:
	.loc 1 343 1 discriminator 1
	leal	-8(%ebp), %esp
	popl	%ebx
	.cfi_restore 3
	popl	%esi
	.cfi_restore 6
	popl	%ebp
	.cfi_restore 5
	.cfi_def_cfa 4, 4
	ret
	.cfi_endproc
.LFE17:
	.size	cgc_flush_input, .-cgc_flush_input
	.globl	cgc_getline
	.type	cgc_getline, @function
cgc_getline:
.LFB18:
	.loc 1 345 55
	.cfi_startproc
	pushl	%ebp
	.cfi_def_cfa_offset 8
	.cfi_offset 5, -8
	movl	%esp, %ebp
	.cfi_def_cfa_register 5
	subl	$24, %esp
	call	__x86.get_pc_thunk.ax
	addl	$_GLOBAL_OFFSET_TABLE_, %eax
	.loc 1 348 13
	subl	$4, %esp
	pushl	12(%ebp)
	pushl	$10
	pushl	8(%ebp)
	call	cgc_receive_until
	addl	$16, %esp
	.loc 1 348 11
	movl	%eax, -12(%ebp)
	.loc 1 350 14
	movl	12(%ebp), %eax
	.loc 1 350 8
	cmpl	%eax, -12(%ebp)
	jne	.L116
	.loc 1 351 15
	movl	12(%ebp), %eax
	leal	-1(%eax), %edx
	movl	8(%ebp), %eax
	addl	%edx, %eax
	.loc 1 351 22
	movb	$0, (%eax)
	jmp	.L117
.L116:
	.loc 1 353 15
	movl	-12(%ebp), %edx
	movl	8(%ebp), %eax
	addl	%edx, %eax
	.loc 1 353 22
	movb	$0, (%eax)
.L117:
	.loc 1 356 12
	movl	-12(%ebp), %eax
	.loc 1 358 1
	leave
	.cfi_restore 5
	.cfi_def_cfa 4, 4
	ret
	.cfi_endproc
.LFE18:
	.size	cgc_getline, .-cgc_getline
	.globl	cgc_receive_until
	.type	cgc_receive_until, @function
cgc_receive_until:
.LFB19:
	.loc 1 360 1
	.cfi_startproc
	pushl	%ebp
	.cfi_def_cfa_offset 8
	.cfi_offset 5, -8
	movl	%esp, %ebp
	.cfi_def_cfa_register 5
	pushl	%ebx
	subl	$36, %esp
	.cfi_offset 3, -12
	call	__x86.get_pc_thunk.bx
	addl	$_GLOBAL_OFFSET_TABLE_, %ebx
	movl	12(%ebp), %eax
	movb	%al, -28(%ebp)
	.loc 1 361 16
	movl	$0, -12(%ebp)
	.loc 1 362 16
	movl	$0, -16(%ebp)
	.loc 1 363 10
	movb	$0, -17(%ebp)
	.loc 1 365 10
	jmp	.L120
.L124:
	.loc 1 366 12
	movl	8(%ebp), %edx
	movl	-12(%ebp), %eax
	addl	%edx, %eax
	.loc 1 366 18
	movb	$0, (%eax)
	.loc 1 368 14
	leal	-16(%ebp), %eax
	pushl	%eax
	pushl	$1
	leal	-17(%ebp), %eax
	pushl	%eax
	pushl	$0
	call	cgc_receive@PLT
	addl	$16, %esp
	.loc 1 368 12
	testl	%eax, %eax
	je	.L121
	.loc 1 369 17
	movl	$0, -12(%ebp)
	.loc 1 370 13
	jmp	.L122
.L121:
	.loc 1 373 16
	movzbl	-17(%ebp), %eax
	.loc 1 373 12
	cmpb	%al, -28(%ebp)
	je	.L127
	.loc 1 378 12
	movl	8(%ebp), %edx
	movl	-12(%ebp), %eax
	addl	%eax, %edx
	.loc 1 378 18
	movzbl	-17(%ebp), %eax
	movb	%al, (%edx)
	.loc 1 379 12
	addl	$1, -12(%ebp)
.L120:
	.loc 1 365 10
	movl	-12(%ebp), %eax
	cmpl	16(%ebp), %eax
	jb	.L124
	.loc 1 381 1
	jmp	.L122
.L127:
	.loc 1 375 13
	nop
.L122:
	.loc 1 383 8
	movl	-12(%ebp), %eax
	cmpl	16(%ebp), %eax
	jne	.L125
	.loc 1 384 9
	subl	$12, %esp
	pushl	$0
	call	cgc_flush_input
	addl	$16, %esp
.L125:
	.loc 1 386 12
	movl	-12(%ebp), %eax
	.loc 1 387 1
	movl	-4(%ebp), %ebx
	leave
	.cfi_restore 5
	.cfi_restore 3
	.cfi_def_cfa 4, 4
	ret
	.cfi_endproc
.LFE19:
	.size	cgc_receive_until, .-cgc_receive_until
	.globl	cgc_receive_bytes
	.type	cgc_receive_bytes, @function
cgc_receive_bytes:
.LFB20:
	.loc 1 390 1
	.cfi_startproc
	pushl	%ebp
	.cfi_def_cfa_offset 8
	.cfi_offset 5, -8
	movl	%esp, %ebp
	.cfi_def_cfa_register 5
	pushl	%ebx
	subl	$20, %esp
	.cfi_offset 3, -12
	call	__x86.get_pc_thunk.bx
	addl	$_GLOBAL_OFFSET_TABLE_, %ebx
	.loc 1 391 12
	movl	$0, -12(%ebp)
	.loc 1 392 12
	movl	$0, -16(%ebp)
	.loc 1 393 12
	movl	$0, -20(%ebp)
	.loc 1 395 15
	movl	12(%ebp), %eax
	subl	-12(%ebp), %eax
	movl	%eax, -16(%ebp)
	.loc 1 397 10
	jmp	.L129
.L132:
	.loc 1 399 35
	movl	8(%ebp), %edx
	movl	-12(%ebp), %eax
	addl	%eax, %edx
	.loc 1 399 14
	leal	-20(%ebp), %eax
	pushl	%eax
	pushl	-16(%ebp)
	pushl	%edx
	pushl	$0
	call	cgc_receive@PLT
	addl	$16, %esp
	.loc 1 399 12
	testl	%eax, %eax
	jne	.L130
	.loc 1 401 22
	movl	-20(%ebp), %eax
	subl	%eax, -16(%ebp)
	.loc 1 402 18
	movl	-20(%ebp), %eax
	addl	%eax, -12(%ebp)
	jmp	.L129
.L130:
	.loc 1 407 19
	movl	$-1, %eax
	jmp	.L133
.L129:
	.loc 1 397 10
	cmpl	$0, -16(%ebp)
	jne	.L132
	.loc 1 412 8
	movl	$0, %eax
.L133:
	.loc 1 414 1 discriminator 1
	movl	-4(%ebp), %ebx
	leave
	.cfi_restore 5
	.cfi_restore 3
	.cfi_def_cfa 4, 4
	ret
	.cfi_endproc
.LFE20:
	.size	cgc_receive_bytes, .-cgc_receive_bytes
	.globl	cgc_strcat
	.type	cgc_strcat, @function
cgc_strcat:
.LFB21:
	.loc 1 417 1
	.cfi_startproc
	pushl	%ebp
	.cfi_def_cfa_offset 8
	.cfi_offset 5, -8
	movl	%esp, %ebp
	.cfi_def_cfa_register 5
	subl	$24, %esp
	call	__x86.get_pc_thunk.ax
	addl	$_GLOBAL_OFFSET_TABLE_, %eax
	.loc 1 418 16
	movl	$0, -12(%ebp)
	.loc 1 419 16
	movl	$0, -16(%ebp)
	.loc 1 421 8
	cmpl	$0, 8(%ebp)
	je	.L141
	.loc 1 421 22 discriminator 1
	cmpl	$0, 12(%ebp)
	je	.L141
	.loc 1 425 13
	subl	$12, %esp
	pushl	8(%ebp)
	call	cgc_strlen
	addl	$16, %esp
	movl	%eax, -16(%ebp)
	.loc 1 427 5
	jmp	.L138
.L139:
	.loc 1 428 26 discriminator 2
	movl	12(%ebp), %edx
	movl	-12(%ebp), %eax
	addl	%edx, %eax
	.loc 1 428 13 discriminator 2
	movl	8(%ebp), %ecx
	movl	-16(%ebp), %edx
	addl	%ecx, %edx
	.loc 1 428 26 discriminator 2
	movzbl	(%eax), %eax
	.loc 1 428 21 discriminator 2
	movb	%al, (%edx)
	.loc 1 427 40 discriminator 2
	addl	$1, -16(%ebp)
	.loc 1 427 50 discriminator 2
	addl	$1, -12(%ebp)
.L138:
	.loc 1 427 16 discriminator 1
	movl	12(%ebp), %edx
	movl	-12(%ebp), %eax
	addl	%edx, %eax
	movzbl	(%eax), %eax
	.loc 1 427 5 discriminator 1
	testb	%al, %al
	jne	.L139
	.loc 1 431 12
	movl	-16(%ebp), %eax
	movl	%eax, -12(%ebp)
	jmp	.L137
.L141:
	.loc 1 422 9
	nop
.L137:
	.loc 1 433 12
	movl	-12(%ebp), %eax
	.loc 1 434 1
	leave
	.cfi_restore 5
	.cfi_def_cfa 4, 4
	ret
	.cfi_endproc
.LFE21:
	.size	cgc_strcat, .-cgc_strcat
	.globl	cgc_strlen
	.type	cgc_strlen, @function
cgc_strlen:
.LFB22:
	.loc 1 437 1
	.cfi_startproc
	pushl	%ebp
	.cfi_def_cfa_offset 8
	.cfi_offset 5, -8
	movl	%esp, %ebp
	.cfi_def_cfa_register 5
	subl	$16, %esp
	call	__x86.get_pc_thunk.ax
	addl	$_GLOBAL_OFFSET_TABLE_, %eax
	.loc 1 438 16
	movl	$0, -4(%ebp)
	.loc 1 440 8
	cmpl	$0, 8(%ebp)
	je	.L148
	.loc 1 444 11
	jmp	.L145
.L146:
	.loc 1 444 35 discriminator 2
	addl	$1, -4(%ebp)
.L145:
	.loc 1 444 16 discriminator 1
	movl	8(%ebp), %edx
	movl	-4(%ebp), %eax
	addl	%edx, %eax
	movzbl	(%eax), %eax
	.loc 1 444 11 discriminator 1
	testb	%al, %al
	jne	.L146
	.loc 1 446 1
	jmp	.L144
.L148:
	.loc 1 441 9
	nop
.L144:
	.loc 1 447 12
	movl	-4(%ebp), %eax
	.loc 1 448 1
	leave
	.cfi_restore 5
	.cfi_def_cfa 4, 4
	ret
	.cfi_endproc
.LFE22:
	.size	cgc_strlen, .-cgc_strlen
	.globl	cgc_itoa
	.type	cgc_itoa, @function
cgc_itoa:
.LFB23:
	.loc 1 451 1
	.cfi_startproc
	pushl	%ebp
	.cfi_def_cfa_offset 8
	.cfi_offset 5, -8
	movl	%esp, %ebp
	.cfi_def_cfa_register 5
	subl	$16, %esp
	call	__x86.get_pc_thunk.ax
	addl	$_GLOBAL_OFFSET_TABLE_, %eax
	.loc 1 452 16
	movl	$0, -4(%ebp)
	.loc 1 453 16
	movl	$0, -8(%ebp)
	.loc 1 454 16
	movl	$0, -12(%ebp)
	.loc 1 456 8
	cmpl	$0, 8(%ebp)
	je	.L156
	.loc 1 461 10
	movl	12(%ebp), %eax
	movl	%eax, -12(%ebp)
.L152:
	.loc 1 463 12 discriminator 1
	addl	$1, -8(%ebp)
	.loc 1 464 14 discriminator 1
	movl	-12(%ebp), %eax
	movl	$-858993459, %edx
	mull	%edx
	movl	%edx, %eax
	shrl	$3, %eax
	movl	%eax, -12(%ebp)
	.loc 1 465 5 discriminator 1
	cmpl	$0, -12(%ebp)
	jne	.L152
	.loc 1 468 8
	movl	-8(%ebp), %eax
	cmpl	16(%ebp), %eax
	jnb	.L157
	.loc 1 472 12
	movl	-8(%ebp), %eax
	movl	%eax, -4(%ebp)
	.loc 1 475 8
	subl	$1, -8(%ebp)
.L154:
	.loc 1 478 25 discriminator 1
	movl	12(%ebp), %ecx
	movl	$-858993459, %edx
	movl	%ecx, %eax
	mull	%edx
	shrl	$3, %edx
	movl	%edx, %eax
	sall	$2, %eax
	addl	%edx, %eax
	addl	%eax, %eax
	subl	%eax, %ecx
	movl	%ecx, %edx
	.loc 1 478 31 discriminator 1
	movl	%edx, %eax
	leal	48(%eax), %ecx
	.loc 1 478 12 discriminator 1
	movl	8(%ebp), %edx
	movl	-8(%ebp), %eax
	addl	%edx, %eax
	.loc 1 478 31 discriminator 1
	movl	%ecx, %edx
	.loc 1 478 18 discriminator 1
	movb	%dl, (%eax)
	.loc 1 479 13 discriminator 1
	movl	12(%ebp), %eax
	movl	$-858993459, %edx
	mull	%edx
	movl	%edx, %eax
	shrl	$3, %eax
	movl	%eax, 12(%ebp)
	.loc 1 480 12 discriminator 1
	subl	$1, -8(%ebp)
	.loc 1 481 5 discriminator 1
	cmpl	$0, 12(%ebp)
	jne	.L154
	.loc 1 483 8
	movl	8(%ebp), %edx
	movl	-4(%ebp), %eax
	addl	%edx, %eax
	.loc 1 483 17
	movb	$0, (%eax)
	jmp	.L151
.L156:
	.loc 1 457 9
	nop
	jmp	.L151
.L157:
	.loc 1 469 9
	nop
.L151:
	.loc 1 485 12
	movl	-4(%ebp), %eax
	.loc 1 486 1
	leave
	.cfi_restore 5
	.cfi_def_cfa 4, 4
	ret
	.cfi_endproc
.LFE23:
	.size	cgc_itoa, .-cgc_itoa
	.section	.rodata
.LC3:
	.string	"\n"
	.text
	.globl	cgc_puts
	.type	cgc_puts, @function
cgc_puts:
.LFB24:
	.loc 1 489 1
	.cfi_startproc
	pushl	%ebp
	.cfi_def_cfa_offset 8
	.cfi_offset 5, -8
	movl	%esp, %ebp
	.cfi_def_cfa_register 5
	pushl	%ebx
	subl	$20, %esp
	.cfi_offset 3, -12
	call	__x86.get_pc_thunk.bx
	addl	$_GLOBAL_OFFSET_TABLE_, %ebx
	.loc 1 491 5
	pushl	8(%ebp)
	call	cgc_strlen
	addl	$4, %esp
	movl	%eax, %edx
	leal	-12(%ebp), %eax
	pushl	%eax
	pushl	%edx
	pushl	8(%ebp)
	pushl	$1
	call	cgc_transmit@PLT
	addl	$16, %esp
	.loc 1 492 5
	leal	-12(%ebp), %eax
	pushl	%eax
	pushl	$1
	leal	.LC3@GOTOFF(%ebx), %eax
	pushl	%eax
	pushl	$1
	call	cgc_transmit@PLT
	addl	$16, %esp
	.loc 1 493 1
	nop
	movl	-4(%ebp), %ebx
	leave
	.cfi_restore 5
	.cfi_restore 3
	.cfi_def_cfa 4, 4
	ret
	.cfi_endproc
.LFE24:
	.size	cgc_puts, .-cgc_puts
	.globl	cgc_strchr
	.type	cgc_strchr, @function
cgc_strchr:
.LFB25:
	.loc 1 495 40
	.cfi_startproc
	pushl	%ebp
	.cfi_def_cfa_offset 8
	.cfi_offset 5, -8
	movl	%esp, %ebp
	.cfi_def_cfa_register 5
	call	__x86.get_pc_thunk.ax
	addl	$_GLOBAL_OFFSET_TABLE_, %eax
	.loc 1 496 8
	jmp	.L160
.L163:
	.loc 1 497 7
	movl	8(%ebp), %eax
	movzbl	(%eax), %eax
	movsbl	%al, %eax
	.loc 1 497 6
	cmpl	%eax, 12(%ebp)
	jne	.L161
	.loc 1 498 11
	movl	8(%ebp), %eax
	jmp	.L162
.L161:
	.loc 1 500 4
	addl	$1, 8(%ebp)
.L160:
	.loc 1 496 9
	movl	8(%ebp), %eax
	movzbl	(%eax), %eax
	.loc 1 496 8
	testb	%al, %al
	jne	.L163
	.loc 1 502 6
	movl	8(%ebp), %eax
	movzbl	(%eax), %eax
	movsbl	%al, %eax
	.loc 1 502 5
	cmpl	%eax, 12(%ebp)
	jne	.L164
	.loc 1 503 10
	movl	8(%ebp), %eax
	jmp	.L162
.L164:
	.loc 1 505 8
	movl	$0, %eax
.L162:
	.loc 1 506 1
	popl	%ebp
	.cfi_restore 5
	.cfi_def_cfa 4, 4
	ret
	.cfi_endproc
.LFE25:
	.size	cgc_strchr, .-cgc_strchr
	.globl	cgc_token
	.bss
	.align 4
	.type	cgc_token, @object
	.size	cgc_token, 4
cgc_token:
	.zero	4
	.globl	cgc_prev_str
	.align 4
	.type	cgc_prev_str, @object
	.size	cgc_prev_str, 4
cgc_prev_str:
	.zero	4
	.globl	cgc_prev_str_len
	.align 4
	.type	cgc_prev_str_len, @object
	.size	cgc_prev_str_len, 4
cgc_prev_str_len:
	.zero	4
	.globl	cgc_prev_str_ptr
	.align 4
	.type	cgc_prev_str_ptr, @object
	.size	cgc_prev_str_ptr, 4
cgc_prev_str_ptr:
	.zero	4
	.text
	.globl	cgc_strtok
	.type	cgc_strtok, @function
cgc_strtok:
.LFB26:
	.loc 1 512 48
	.cfi_startproc
	pushl	%ebp
	.cfi_def_cfa_offset 8
	.cfi_offset 5, -8
	movl	%esp, %ebp
	.cfi_def_cfa_register 5
	pushl	%ebx
	subl	$20, %esp
	.cfi_offset 3, -12
	call	__x86.get_pc_thunk.bx
	addl	$_GLOBAL_OFFSET_TABLE_, %ebx
	.loc 1 519 5
	cmpl	$0, 12(%ebp)
	jne	.L166
	.loc 1 520 9
	movl	$0, %eax
	jmp	.L167
.L166:
	.loc 1 524 5
	cmpl	$0, 8(%ebp)
	jne	.L168
	.loc 1 525 20
	movl	cgc_prev_str@GOTOFF(%ebx), %eax
	.loc 1 525 6
	testl	%eax, %eax
	jne	.L169
	.loc 1 526 10
	movl	$0, %eax
	jmp	.L167
.L169:
	.loc 1 529 39
	movl	cgc_prev_str@GOTOFF(%ebx), %edx
	movl	cgc_prev_str_len@GOTOFF(%ebx), %eax
	addl	%eax, %edx
	.loc 1 529 24
	movl	cgc_prev_str_ptr@GOTOFF(%ebx), %eax
	.loc 1 529 6
	cmpl	%eax, %edx
	ja	.L170
	.loc 1 530 10
	movl	$0, %eax
	jmp	.L167
.L168:
	.loc 1 534 7
	movl	cgc_prev_str@GOTOFF(%ebx), %eax
	.loc 1 534 6
	testl	%eax, %eax
	je	.L170
	.loc 1 535 4
	movl	cgc_prev_str_len@GOTOFF(%ebx), %edx
	movl	cgc_prev_str@GOTOFF(%ebx), %eax
	subl	$8, %esp
	pushl	%edx
	pushl	%eax
	call	cgc_deallocate@PLT
	addl	$16, %esp
	.loc 1 536 17
	movl	$0, cgc_prev_str@GOTOFF(%ebx)
	.loc 1 537 21
	movl	$0, cgc_prev_str_len@GOTOFF(%ebx)
	.loc 1 538 21
	movl	$0, cgc_prev_str_ptr@GOTOFF(%ebx)
.L170:
	.loc 1 543 19
	movl	cgc_prev_str@GOTOFF(%ebx), %eax
	.loc 1 543 5
	testl	%eax, %eax
	jne	.L171
	.loc 1 544 7
	subl	$12, %esp
	pushl	8(%ebp)
	call	cgc_strlen
	addl	$16, %esp
	.loc 1 544 6
	cmpl	$4096, %eax
	jbe	.L172
	.loc 1 546 10
	movl	$0, %eax
	jmp	.L167
.L172:
	.loc 1 548 22
	subl	$12, %esp
	pushl	8(%ebp)
	call	cgc_strlen
	addl	$16, %esp
	.loc 1 548 20
	movl	%eax, cgc_prev_str_len@GOTOFF(%ebx)
	.loc 1 549 7
	movl	cgc_prev_str_len@GOTOFF(%ebx), %eax
	subl	$4, %esp
	leal	cgc_prev_str@GOTOFF(%ebx), %edx
	pushl	%edx
	pushl	$0
	pushl	%eax
	call	cgc_allocate@PLT
	addl	$16, %esp
	.loc 1 549 6
	testl	%eax, %eax
	je	.L173
	.loc 1 550 10
	movl	$0, %eax
	jmp	.L167
.L173:
	.loc 1 552 3
	movl	cgc_prev_str@GOTOFF(%ebx), %eax
	subl	$8, %esp
	pushl	8(%ebp)
	pushl	%eax
	call	cgc_strcpy
	addl	$16, %esp
	.loc 1 553 20
	movl	cgc_prev_str@GOTOFF(%ebx), %eax
	movl	%eax, cgc_prev_str_ptr@GOTOFF(%ebx)
.L171:
	.loc 1 556 6
	movl	cgc_prev_str_ptr@GOTOFF(%ebx), %eax
	movl	%eax, 8(%ebp)
	.loc 1 559 8
	jmp	.L174
.L176:
	.loc 1 560 6
	addl	$1, 8(%ebp)
.L174:
	.loc 1 559 30
	movl	8(%ebp), %eax
	movzbl	(%eax), %eax
	.loc 1 559 9
	movsbl	%al, %eax
	subl	$8, %esp
	pushl	%eax
	pushl	12(%ebp)
	call	cgc_strchr
	addl	$16, %esp
	.loc 1 559 8
	testl	%eax, %eax
	je	.L175
	.loc 1 559 56 discriminator 1
	movl	cgc_prev_str@GOTOFF(%ebx), %edx
	movl	cgc_prev_str_len@GOTOFF(%ebx), %eax
	addl	%edx, %eax
	.loc 1 559 35 discriminator 1
	cmpl	%eax, 8(%ebp)
	jb	.L176
.L175:
	.loc 1 562 25
	movl	cgc_prev_str@GOTOFF(%ebx), %edx
	movl	cgc_prev_str_len@GOTOFF(%ebx), %eax
	addl	%edx, %eax
	.loc 1 562 5
	cmpl	%eax, 8(%ebp)
	jb	.L177
	.loc 1 563 9
	movl	$0, %eax
	jmp	.L167
.L177:
	.loc 1 567 8
	movl	8(%ebp), %eax
	movl	%eax, -20(%ebp)
	.loc 1 568 12
	subl	$12, %esp
	pushl	8(%ebp)
	call	cgc_strlen
	addl	$16, %esp
	movl	%eax, %edx
	.loc 1 568 6
	movl	8(%ebp), %eax
	addl	%edx, %eax
	movl	%eax, -12(%ebp)
	.loc 1 569 9
	movl	$0, -16(%ebp)
	.loc 1 569 2
	jmp	.L178
.L180:
	.loc 1 570 35
	movl	-16(%ebp), %edx
	movl	12(%ebp), %eax
	addl	%edx, %eax
	movzbl	(%eax), %eax
	.loc 1 570 12
	movsbl	%al, %eax
	subl	$8, %esp
	pushl	%eax
	pushl	-20(%ebp)
	call	cgc_strchr
	addl	$16, %esp
	movl	%eax, -24(%ebp)
	.loc 1 570 6
	cmpl	$0, -24(%ebp)
	je	.L179
	.loc 1 571 7
	cmpl	$0, -24(%ebp)
	je	.L179
	.loc 1 571 17 discriminator 1
	movl	-24(%ebp), %eax
	cmpl	-12(%ebp), %eax
	jnb	.L179
	.loc 1 572 9
	movl	-24(%ebp), %eax
	movl	%eax, -12(%ebp)
.L179:
	.loc 1 569 46 discriminator 2
	addl	$1, -16(%ebp)
.L178:
	.loc 1 569 18 discriminator 1
	subl	$12, %esp
	pushl	12(%ebp)
	call	cgc_strlen
	addl	$16, %esp
	movl	%eax, %edx
	.loc 1 569 16 discriminator 1
	movl	-16(%ebp), %eax
	.loc 1 569 2 discriminator 1
	cmpl	%eax, %edx
	ja	.L180
	.loc 1 578 12
	movl	-20(%ebp), %eax
	movl	%eax, cgc_token@GOTOFF(%ebx)
	.loc 1 579 7
	movl	-12(%ebp), %eax
	movb	$0, (%eax)
	.loc 1 581 24
	movl	-12(%ebp), %eax
	addl	$1, %eax
	.loc 1 581 19
	movl	%eax, cgc_prev_str_ptr@GOTOFF(%ebx)
	.loc 1 583 8
	movl	cgc_token@GOTOFF(%ebx), %eax
.L167:
	.loc 1 584 1
	movl	-4(%ebp), %ebx
	leave
	.cfi_restore 5
	.cfi_restore 3
	.cfi_def_cfa 4, 4
	ret
	.cfi_endproc
.LFE26:
	.size	cgc_strtok, .-cgc_strtok
	.globl	cgc_write
	.type	cgc_write, @function
cgc_write:
.LFB27:
	.loc 1 587 1
	.cfi_startproc
	pushl	%ebp
	.cfi_def_cfa_offset 8
	.cfi_offset 5, -8
	movl	%esp, %ebp
	.cfi_def_cfa_register 5
	pushl	%ebx
	subl	$20, %esp
	.cfi_offset 3, -12
	call	__x86.get_pc_thunk.ax
	addl	$_GLOBAL_OFFSET_TABLE_, %eax
	.loc 1 590 2
	leal	-12(%ebp), %edx
	pushl	%edx
	pushl	12(%ebp)
	pushl	8(%ebp)
	pushl	$1
	movl	%eax, %ebx
	call	cgc_transmit@PLT
	addl	$16, %esp
	.loc 1 592 12
	movl	-12(%ebp), %eax
	.loc 1 592 5
	cmpl	%eax, 12(%ebp)
	je	.L182
	.loc 1 593 9
	movl	$-1, %eax
	jmp	.L184
.L182:
	.loc 1 595 8
	movl	-12(%ebp), %eax
.L184:
	.loc 1 597 1 discriminator 1
	movl	-4(%ebp), %ebx
	leave
	.cfi_restore 5
	.cfi_restore 3
	.cfi_def_cfa 4, 4
	ret
	.cfi_endproc
.LFE27:
	.size	cgc_write, .-cgc_write
	.globl	cgc_strdup
	.type	cgc_strdup, @function
cgc_strdup:
.LFB28:
	.loc 1 600 1
	.cfi_startproc
	pushl	%ebp
	.cfi_def_cfa_offset 8
	.cfi_offset 5, -8
	movl	%esp, %ebp
	.cfi_def_cfa_register 5
	pushl	%ebx
	subl	$20, %esp
	.cfi_offset 3, -12
	call	__x86.get_pc_thunk.bx
	addl	$_GLOBAL_OFFSET_TABLE_, %ebx
	.loc 1 603 12
	cmpl	$0, 8(%ebp)
	jne	.L186
	.loc 1 604 23
	movl	$0, %eax
	jmp	.L189
.L186:
	.loc 1 607 26
	pushl	8(%ebp)
	call	cgc_strlen
	addl	$4, %esp
	.loc 1 607 13
	leal	1(%eax), %edx
	subl	$4, %esp
	leal	-12(%ebp), %eax
	pushl	%eax
	pushl	$0
	pushl	%edx
	call	cgc_allocate@PLT
	addl	$16, %esp
	.loc 1 607 12
	testl	%eax, %eax
	je	.L188
	.loc 1 608 23
	movl	$0, %eax
	jmp	.L189
.L188:
	.loc 1 611 27
	subl	$12, %esp
	pushl	8(%ebp)
	call	cgc_strlen
	addl	$16, %esp
	.loc 1 611 9
	leal	1(%eax), %edx
	movl	-12(%ebp), %eax
	subl	$8, %esp
	pushl	%edx
	pushl	%eax
	call	cgc_bzero
	addl	$16, %esp
	.loc 1 612 9
	movl	-12(%ebp), %eax
	subl	$8, %esp
	pushl	8(%ebp)
	pushl	%eax
	call	cgc_strcpy
	addl	$16, %esp
	.loc 1 614 15
	movl	-12(%ebp), %eax
.L189:
	.loc 1 615 1 discriminator 1
	movl	-4(%ebp), %ebx
	leave
	.cfi_restore 5
	.cfi_restore 3
	.cfi_def_cfa 4, 4
	ret
	.cfi_endproc
.LFE28:
	.size	cgc_strdup, .-cgc_strdup
	.section	.rodata
	.align 8
.LC1:
	.long	2576980378
	.long	1069128089
	.align 8
.LC2:
	.long	0
	.long	1076101120
	.section	.text.__x86.get_pc_thunk.ax,"axG",@progbits,__x86.get_pc_thunk.ax,comdat
	.globl	__x86.get_pc_thunk.ax
	.hidden	__x86.get_pc_thunk.ax
	.type	__x86.get_pc_thunk.ax, @function
__x86.get_pc_thunk.ax:
.LFB29:
	.cfi_startproc
	movl	(%esp), %eax
	ret
	.cfi_endproc
.LFE29:
	.section	.text.__x86.get_pc_thunk.bx,"axG",@progbits,__x86.get_pc_thunk.bx,comdat
	.globl	__x86.get_pc_thunk.bx
	.hidden	__x86.get_pc_thunk.bx
	.type	__x86.get_pc_thunk.bx, @function
__x86.get_pc_thunk.bx:
.LFB30:
	.cfi_startproc
	movl	(%esp), %ebx
	ret
	.cfi_endproc
.LFE30:
	.text
.Letext0:
	.file 2 "/home/pdreiter/Data/APR_eval/GenProg/trans.src-v24.cb_eval/include/libcgc.h"
	.section	.note.GNU-stack,"",@progbits
